
bwos.elf:     file format elf32-littlearm


Disassembly of section .text:

40000000 <_start>:
40000000:	e3a00000 	mov	r0, #0
40000004:	ee070f11 	mcr	15, 0, r0, cr7, cr1, {0}
40000008:	ee070fd1 	mcr	15, 0, r0, cr7, cr1, {6}
4000000c:	ee110f10 	mrc	15, 0, r0, cr1, cr0, {0}
40000010:	e59f1038 	ldr	r1, [pc, #56]	; 40000050 <_start+0x50>
40000014:	e1800001 	orr	r0, r0, r1
40000018:	e3c00004 	bic	r0, r0, #4
4000001c:	e3c00001 	bic	r0, r0, #1
40000020:	e3c00a02 	bic	r0, r0, #8192	; 0x2000
40000024:	ee010f10 	mcr	15, 0, r0, cr1, cr0, {0}
40000028:	f57ff06f 	isb	sy
4000002c:	ee110f30 	mrc	15, 0, r0, cr1, cr0, {1}
40000030:	e3a01040 	mov	r1, #64	; 0x40
40000034:	e1800001 	orr	r0, r0, r1
40000038:	ee010f30 	mcr	15, 0, r0, cr1, cr0, {1}
4000003c:	f57ff06f 	isb	sy
40000040:	e59f000c 	ldr	r0, [pc, #12]	; 40000054 <_start+0x54>
40000044:	e3a01001 	mov	r1, #1
40000048:	e1800001 	orr	r0, r0, r1
4000004c:	e12fff10 	bx	r0
40000050:	40001802 	.word	0x40001802
40000054:	40003661 	.word	0x40003661

40000058 <task1>:
40000058:	b580      	push	{r7, lr}
4000005a:	b082      	sub	sp, #8
4000005c:	af00      	add	r7, sp, #0
4000005e:	6078      	str	r0, [r7, #4]
40000060:	6039      	str	r1, [r7, #0]
40000062:	f244 13c8 	movw	r3, #16840	; 0x41c8
40000066:	f2c4 0300 	movt	r3, #16384	; 0x4000
4000006a:	681b      	ldr	r3, [r3, #0]
4000006c:	4618      	mov	r0, r3
4000006e:	f003 fcd1 	bl	40003a14 <mutex_lock>
40000072:	6879      	ldr	r1, [r7, #4]
40000074:	f643 305c 	movw	r0, #15196	; 0x3b5c
40000078:	f2c4 0000 	movt	r0, #16384	; 0x4000
4000007c:	f003 fa7a 	bl	40003574 <lprintf>
40000080:	2007      	movs	r0, #7
40000082:	f003 fc95 	bl	400039b0 <task_tsleep>
40000086:	6879      	ldr	r1, [r7, #4]
40000088:	f643 306c 	movw	r0, #15212	; 0x3b6c
4000008c:	f2c4 0000 	movt	r0, #16384	; 0x4000
40000090:	f003 fa70 	bl	40003574 <lprintf>
40000094:	f244 13c8 	movw	r3, #16840	; 0x41c8
40000098:	f2c4 0300 	movt	r3, #16384	; 0x4000
4000009c:	681b      	ldr	r3, [r3, #0]
4000009e:	4618      	mov	r0, r3
400000a0:	f003 fcb3 	bl	40003a0a <mutex_unlock>
400000a4:	e7dd      	b.n	40000062 <task1+0xa>
400000a6:	bf00      	nop

400000a8 <task2>:
400000a8:	b580      	push	{r7, lr}
400000aa:	b082      	sub	sp, #8
400000ac:	af00      	add	r7, sp, #0
400000ae:	6078      	str	r0, [r7, #4]
400000b0:	6039      	str	r1, [r7, #0]
400000b2:	f244 13c8 	movw	r3, #16840	; 0x41c8
400000b6:	f2c4 0300 	movt	r3, #16384	; 0x4000
400000ba:	681b      	ldr	r3, [r3, #0]
400000bc:	4618      	mov	r0, r3
400000be:	f003 fca9 	bl	40003a14 <mutex_lock>
400000c2:	6879      	ldr	r1, [r7, #4]
400000c4:	f643 3080 	movw	r0, #15232	; 0x3b80
400000c8:	f2c4 0000 	movt	r0, #16384	; 0x4000
400000cc:	f003 fa52 	bl	40003574 <lprintf>
400000d0:	200e      	movs	r0, #14
400000d2:	f003 fc6d 	bl	400039b0 <task_tsleep>
400000d6:	6879      	ldr	r1, [r7, #4]
400000d8:	f643 3090 	movw	r0, #15248	; 0x3b90
400000dc:	f2c4 0000 	movt	r0, #16384	; 0x4000
400000e0:	f003 fa48 	bl	40003574 <lprintf>
400000e4:	f244 13c8 	movw	r3, #16840	; 0x41c8
400000e8:	f2c4 0300 	movt	r3, #16384	; 0x4000
400000ec:	681b      	ldr	r3, [r3, #0]
400000ee:	4618      	mov	r0, r3
400000f0:	f003 fc8b 	bl	40003a0a <mutex_unlock>
400000f4:	e7dd      	b.n	400000b2 <task2+0xa>
400000f6:	bf00      	nop

400000f8 <task3>:
400000f8:	b580      	push	{r7, lr}
400000fa:	b082      	sub	sp, #8
400000fc:	af00      	add	r7, sp, #0
400000fe:	6078      	str	r0, [r7, #4]
40000100:	6039      	str	r1, [r7, #0]
40000102:	f244 13c8 	movw	r3, #16840	; 0x41c8
40000106:	f2c4 0300 	movt	r3, #16384	; 0x4000
4000010a:	681b      	ldr	r3, [r3, #0]
4000010c:	4618      	mov	r0, r3
4000010e:	f003 fc81 	bl	40003a14 <mutex_lock>
40000112:	6879      	ldr	r1, [r7, #4]
40000114:	f643 30a4 	movw	r0, #15268	; 0x3ba4
40000118:	f2c4 0000 	movt	r0, #16384	; 0x4000
4000011c:	f003 fa2a 	bl	40003574 <lprintf>
40000120:	2015      	movs	r0, #21
40000122:	f003 fc45 	bl	400039b0 <task_tsleep>
40000126:	6879      	ldr	r1, [r7, #4]
40000128:	f643 30b4 	movw	r0, #15284	; 0x3bb4
4000012c:	f2c4 0000 	movt	r0, #16384	; 0x4000
40000130:	f003 fa20 	bl	40003574 <lprintf>
40000134:	f244 13c8 	movw	r3, #16840	; 0x41c8
40000138:	f2c4 0300 	movt	r3, #16384	; 0x4000
4000013c:	681b      	ldr	r3, [r3, #0]
4000013e:	4618      	mov	r0, r3
40000140:	f003 fc63 	bl	40003a0a <mutex_unlock>
40000144:	e7dd      	b.n	40000102 <task3+0xa>
40000146:	bf00      	nop

40000148 <task4>:
40000148:	b580      	push	{r7, lr}
4000014a:	b082      	sub	sp, #8
4000014c:	af00      	add	r7, sp, #0
4000014e:	6078      	str	r0, [r7, #4]
40000150:	6039      	str	r1, [r7, #0]
40000152:	f244 13c8 	movw	r3, #16840	; 0x41c8
40000156:	f2c4 0300 	movt	r3, #16384	; 0x4000
4000015a:	681b      	ldr	r3, [r3, #0]
4000015c:	4618      	mov	r0, r3
4000015e:	f003 fc59 	bl	40003a14 <mutex_lock>
40000162:	6879      	ldr	r1, [r7, #4]
40000164:	f643 30c8 	movw	r0, #15304	; 0x3bc8
40000168:	f2c4 0000 	movt	r0, #16384	; 0x4000
4000016c:	f003 fa02 	bl	40003574 <lprintf>
40000170:	201d      	movs	r0, #29
40000172:	f003 fc1d 	bl	400039b0 <task_tsleep>
40000176:	6879      	ldr	r1, [r7, #4]
40000178:	f643 30d8 	movw	r0, #15320	; 0x3bd8
4000017c:	f2c4 0000 	movt	r0, #16384	; 0x4000
40000180:	f003 f9f8 	bl	40003574 <lprintf>
40000184:	f244 13c8 	movw	r3, #16840	; 0x41c8
40000188:	f2c4 0300 	movt	r3, #16384	; 0x4000
4000018c:	681b      	ldr	r3, [r3, #0]
4000018e:	4618      	mov	r0, r3
40000190:	f003 fc3b 	bl	40003a0a <mutex_unlock>
40000194:	e7dd      	b.n	40000152 <task4+0xa>
40000196:	bf00      	nop

40000198 <main_task>:
40000198:	b580      	push	{r7, lr}
4000019a:	b082      	sub	sp, #8
4000019c:	af00      	add	r7, sp, #0
4000019e:	2300      	movs	r3, #0
400001a0:	607b      	str	r3, [r7, #4]
400001a2:	e014      	b.n	400001ce <main_task+0x36>
400001a4:	687b      	ldr	r3, [r7, #4]
400001a6:	015a      	lsls	r2, r3, #5
400001a8:	f244 0300 	movw	r3, #16384	; 0x4000
400001ac:	f2c4 0300 	movt	r3, #16384	; 0x4000
400001b0:	4413      	add	r3, r2
400001b2:	4618      	mov	r0, r3
400001b4:	f003 fbe8 	bl	40003988 <task_create>
400001b8:	4601      	mov	r1, r0
400001ba:	f244 1388 	movw	r3, #16776	; 0x4188
400001be:	f2c4 0300 	movt	r3, #16384	; 0x4000
400001c2:	687a      	ldr	r2, [r7, #4]
400001c4:	f843 1022 	str.w	r1, [r3, r2, lsl #2]
400001c8:	687b      	ldr	r3, [r7, #4]
400001ca:	3301      	adds	r3, #1
400001cc:	607b      	str	r3, [r7, #4]
400001ce:	687b      	ldr	r3, [r7, #4]
400001d0:	2b05      	cmp	r3, #5
400001d2:	d9e7      	bls.n	400001a4 <main_task+0xc>
400001d4:	f003 fc14 	bl	40003a00 <mutex_create>
400001d8:	4602      	mov	r2, r0
400001da:	f244 13c8 	movw	r3, #16840	; 0x41c8
400001de:	f2c4 0300 	movt	r3, #16384	; 0x4000
400001e2:	601a      	str	r2, [r3, #0]
400001e4:	f003 fbda 	bl	4000399c <task_sleep>
400001e8:	3708      	adds	r7, #8
400001ea:	46bd      	mov	sp, r7
400001ec:	bd80      	pop	{r7, pc}
400001ee:	bf00      	nop

400001f0 <board_mmgr_init>:
400001f0:	b580      	push	{r7, lr}
400001f2:	af00      	add	r7, sp, #0
400001f4:	2202      	movs	r2, #2
400001f6:	f44f 5180 	mov.w	r1, #4096	; 0x1000
400001fa:	f04f 70e1 	mov.w	r0, #29491200	; 0x1c20000
400001fe:	f000 fad7 	bl	400007b0 <mmgr_add_entry>
40000202:	2202      	movs	r2, #2
40000204:	f44f 5100 	mov.w	r1, #8192	; 0x2000
40000208:	f44f 4000 	mov.w	r0, #32768	; 0x8000
4000020c:	f2c0 10c2 	movt	r0, #450	; 0x1c2
40000210:	f000 face 	bl	400007b0 <mmgr_add_entry>
40000214:	2202      	movs	r2, #2
40000216:	f44f 5140 	mov.w	r1, #12288	; 0x3000
4000021a:	f44f 40a0 	mov.w	r0, #20480	; 0x5000
4000021e:	f2c0 10c2 	movt	r0, #450	; 0x1c2
40000222:	f000 fac5 	bl	400007b0 <mmgr_add_entry>
40000226:	bd80      	pop	{r7, pc}

40000228 <init_task_board_depend>:
40000228:	b480      	push	{r7}
4000022a:	af00      	add	r7, sp, #0
4000022c:	46bd      	mov	sp, r7
4000022e:	f85d 7b04 	ldr.w	r7, [sp], #4
40000232:	4770      	bx	lr

40000234 <debug_print>:
40000234:	b480      	push	{r7}
40000236:	b083      	sub	sp, #12
40000238:	af00      	add	r7, sp, #0
4000023a:	6078      	str	r0, [r7, #4]
4000023c:	e013      	b.n	40000266 <debug_print+0x32>
4000023e:	bf00      	nop
40000240:	f248 037c 	movw	r3, #32892	; 0x807c
40000244:	f2c0 13c2 	movt	r3, #450	; 0x1c2
40000248:	681b      	ldr	r3, [r3, #0]
4000024a:	f003 0304 	and.w	r3, r3, #4
4000024e:	2b00      	cmp	r3, #0
40000250:	d0f6      	beq.n	40000240 <debug_print+0xc>
40000252:	f44f 4300 	mov.w	r3, #32768	; 0x8000
40000256:	f2c0 13c2 	movt	r3, #450	; 0x1c2
4000025a:	687a      	ldr	r2, [r7, #4]
4000025c:	7812      	ldrb	r2, [r2, #0]
4000025e:	601a      	str	r2, [r3, #0]
40000260:	687b      	ldr	r3, [r7, #4]
40000262:	3301      	adds	r3, #1
40000264:	607b      	str	r3, [r7, #4]
40000266:	687b      	ldr	r3, [r7, #4]
40000268:	781b      	ldrb	r3, [r3, #0]
4000026a:	2b00      	cmp	r3, #0
4000026c:	d1e7      	bne.n	4000023e <debug_print+0xa>
4000026e:	370c      	adds	r7, #12
40000270:	46bd      	mov	sp, r7
40000272:	f85d 7b04 	ldr.w	r7, [sp], #4
40000276:	4770      	bx	lr

40000278 <debug_print_init>:
40000278:	b480      	push	{r7}
4000027a:	af00      	add	r7, sp, #0
4000027c:	46bd      	mov	sp, r7
4000027e:	f85d 7b04 	ldr.w	r7, [sp], #4
40000282:	4770      	bx	lr

40000284 <bit_srch_l>:
40000284:	b480      	push	{r7}
40000286:	b085      	sub	sp, #20
40000288:	af00      	add	r7, sp, #0
4000028a:	6078      	str	r0, [r7, #4]
4000028c:	231f      	movs	r3, #31
4000028e:	60fb      	str	r3, [r7, #12]
40000290:	e002      	b.n	40000298 <bit_srch_l+0x14>
40000292:	68fb      	ldr	r3, [r7, #12]
40000294:	3b01      	subs	r3, #1
40000296:	60fb      	str	r3, [r7, #12]
40000298:	68fb      	ldr	r3, [r7, #12]
4000029a:	2b00      	cmp	r3, #0
4000029c:	db06      	blt.n	400002ac <bit_srch_l+0x28>
4000029e:	2201      	movs	r2, #1
400002a0:	68fb      	ldr	r3, [r7, #12]
400002a2:	409a      	lsls	r2, r3
400002a4:	687b      	ldr	r3, [r7, #4]
400002a6:	4013      	ands	r3, r2
400002a8:	2b00      	cmp	r3, #0
400002aa:	d0f2      	beq.n	40000292 <bit_srch_l+0xe>
400002ac:	68fb      	ldr	r3, [r7, #12]
400002ae:	4618      	mov	r0, r3
400002b0:	3714      	adds	r7, #20
400002b2:	46bd      	mov	sp, r7
400002b4:	f85d 7b04 	ldr.w	r7, [sp], #4
400002b8:	4770      	bx	lr
400002ba:	bf00      	nop

400002bc <arch_init_task>:
400002bc:	b480      	push	{r7}
400002be:	b085      	sub	sp, #20
400002c0:	af00      	add	r7, sp, #0
400002c2:	6078      	str	r0, [r7, #4]
400002c4:	6039      	str	r1, [r7, #0]
400002c6:	687b      	ldr	r3, [r7, #4]
400002c8:	6b9b      	ldr	r3, [r3, #56]	; 0x38
400002ca:	461a      	mov	r2, r3
400002cc:	687b      	ldr	r3, [r7, #4]
400002ce:	6bdb      	ldr	r3, [r3, #60]	; 0x3c
400002d0:	4413      	add	r3, r2
400002d2:	3b58      	subs	r3, #88	; 0x58
400002d4:	60fb      	str	r3, [r7, #12]
400002d6:	68fb      	ldr	r3, [r7, #12]
400002d8:	f023 0307 	bic.w	r3, r3, #7
400002dc:	60fb      	str	r3, [r7, #12]
400002de:	687b      	ldr	r3, [r7, #4]
400002e0:	68fa      	ldr	r2, [r7, #12]
400002e2:	609a      	str	r2, [r3, #8]
400002e4:	687b      	ldr	r3, [r7, #4]
400002e6:	6c1b      	ldr	r3, [r3, #64]	; 0x40
400002e8:	461a      	mov	r2, r3
400002ea:	687b      	ldr	r3, [r7, #4]
400002ec:	6c5b      	ldr	r3, [r3, #68]	; 0x44
400002ee:	4413      	add	r3, r2
400002f0:	60bb      	str	r3, [r7, #8]
400002f2:	68bb      	ldr	r3, [r7, #8]
400002f4:	f023 0307 	bic.w	r3, r3, #7
400002f8:	60bb      	str	r3, [r7, #8]
400002fa:	68fb      	ldr	r3, [r7, #12]
400002fc:	f103 0234 	add.w	r2, r3, #52	; 0x34
40000300:	f643 0307 	movw	r3, #14343	; 0x3807
40000304:	f2c4 0300 	movt	r3, #16384	; 0x4000
40000308:	6013      	str	r3, [r2, #0]
4000030a:	68fb      	ldr	r3, [r7, #12]
4000030c:	3350      	adds	r3, #80	; 0x50
4000030e:	687a      	ldr	r2, [r7, #4]
40000310:	6b52      	ldr	r2, [r2, #52]	; 0x34
40000312:	601a      	str	r2, [r3, #0]
40000314:	68fb      	ldr	r3, [r7, #12]
40000316:	3354      	adds	r3, #84	; 0x54
40000318:	687a      	ldr	r2, [r7, #4]
4000031a:	6b12      	ldr	r2, [r2, #48]	; 0x30
4000031c:	f002 0204 	and.w	r2, r2, #4
40000320:	2a00      	cmp	r2, #0
40000322:	d001      	beq.n	40000328 <arch_init_task+0x6c>
40000324:	223f      	movs	r2, #63	; 0x3f
40000326:	e000      	b.n	4000032a <arch_init_task+0x6e>
40000328:	2230      	movs	r2, #48	; 0x30
4000032a:	601a      	str	r2, [r3, #0]
4000032c:	68fb      	ldr	r3, [r7, #12]
4000032e:	330c      	adds	r3, #12
40000330:	2200      	movs	r2, #0
40000332:	601a      	str	r2, [r3, #0]
40000334:	68fb      	ldr	r3, [r7, #12]
40000336:	2200      	movs	r2, #0
40000338:	601a      	str	r2, [r3, #0]
4000033a:	68fb      	ldr	r3, [r7, #12]
4000033c:	3304      	adds	r3, #4
4000033e:	68ba      	ldr	r2, [r7, #8]
40000340:	601a      	str	r2, [r3, #0]
40000342:	68fb      	ldr	r3, [r7, #12]
40000344:	f103 0208 	add.w	r2, r3, #8
40000348:	f643 13bb 	movw	r3, #14779	; 0x39bb
4000034c:	f2c4 0300 	movt	r3, #16384	; 0x4000
40000350:	6013      	str	r3, [r2, #0]
40000352:	68fb      	ldr	r3, [r7, #12]
40000354:	3338      	adds	r3, #56	; 0x38
40000356:	683a      	ldr	r2, [r7, #0]
40000358:	601a      	str	r2, [r3, #0]
4000035a:	68fb      	ldr	r3, [r7, #12]
4000035c:	333c      	adds	r3, #60	; 0x3c
4000035e:	2200      	movs	r2, #0
40000360:	601a      	str	r2, [r3, #0]
40000362:	68fb      	ldr	r3, [r7, #12]
40000364:	3340      	adds	r3, #64	; 0x40
40000366:	2200      	movs	r2, #0
40000368:	601a      	str	r2, [r3, #0]
4000036a:	68fb      	ldr	r3, [r7, #12]
4000036c:	3344      	adds	r3, #68	; 0x44
4000036e:	2200      	movs	r2, #0
40000370:	601a      	str	r2, [r3, #0]
40000372:	3714      	adds	r7, #20
40000374:	46bd      	mov	sp, r7
40000376:	f85d 7b04 	ldr.w	r7, [sp], #4
4000037a:	4770      	bx	lr

4000037c <arch_init_task_create>:
4000037c:	b580      	push	{r7, lr}
4000037e:	b082      	sub	sp, #8
40000380:	af00      	add	r7, sp, #0
40000382:	6078      	str	r0, [r7, #4]
40000384:	2100      	movs	r1, #0
40000386:	6878      	ldr	r0, [r7, #4]
40000388:	f7ff ff98 	bl	400002bc <arch_init_task>
4000038c:	3708      	adds	r7, #8
4000038e:	46bd      	mov	sp, r7
40000390:	bd80      	pop	{r7, pc}
40000392:	bf00      	nop

40000394 <arch_task_create>:
40000394:	b580      	push	{r7, lr}
40000396:	b084      	sub	sp, #16
40000398:	af00      	add	r7, sp, #0
4000039a:	6078      	str	r0, [r7, #4]
4000039c:	6039      	str	r1, [r7, #0]
4000039e:	2300      	movs	r3, #0
400003a0:	60fb      	str	r3, [r7, #12]
400003a2:	6839      	ldr	r1, [r7, #0]
400003a4:	6878      	ldr	r0, [r7, #4]
400003a6:	f7ff ff89 	bl	400002bc <arch_init_task>
400003aa:	687b      	ldr	r3, [r7, #4]
400003ac:	6b1b      	ldr	r3, [r3, #48]	; 0x30
400003ae:	f003 0302 	and.w	r3, r3, #2
400003b2:	2b00      	cmp	r3, #0
400003b4:	d016      	beq.n	400003e4 <arch_task_create+0x50>
400003b6:	687b      	ldr	r3, [r7, #4]
400003b8:	689b      	ldr	r3, [r3, #8]
400003ba:	60bb      	str	r3, [r7, #8]
400003bc:	68bb      	ldr	r3, [r7, #8]
400003be:	330c      	adds	r3, #12
400003c0:	f04f 4280 	mov.w	r2, #1073741824	; 0x40000000
400003c4:	601a      	str	r2, [r3, #0]
400003c6:	2108      	movs	r1, #8
400003c8:	f240 1001 	movw	r0, #257	; 0x101
400003cc:	f002 f89a 	bl	40002504 <__sys_malloc_align>
400003d0:	4602      	mov	r2, r0
400003d2:	687b      	ldr	r3, [r7, #4]
400003d4:	60da      	str	r2, [r3, #12]
400003d6:	687b      	ldr	r3, [r7, #4]
400003d8:	68db      	ldr	r3, [r3, #12]
400003da:	2b00      	cmp	r3, #0
400003dc:	d102      	bne.n	400003e4 <arch_task_create+0x50>
400003de:	f04f 33ff 	mov.w	r3, #4294967295
400003e2:	60fb      	str	r3, [r7, #12]
400003e4:	68fb      	ldr	r3, [r7, #12]
400003e6:	4618      	mov	r0, r3
400003e8:	3710      	adds	r7, #16
400003ea:	46bd      	mov	sp, r7
400003ec:	bd80      	pop	{r7, pc}
400003ee:	bf00      	nop

400003f0 <arch_task_active>:
400003f0:	b480      	push	{r7}
400003f2:	b085      	sub	sp, #20
400003f4:	af00      	add	r7, sp, #0
400003f6:	6078      	str	r0, [r7, #4]
400003f8:	6039      	str	r1, [r7, #0]
400003fa:	687b      	ldr	r3, [r7, #4]
400003fc:	689b      	ldr	r3, [r3, #8]
400003fe:	60fb      	str	r3, [r7, #12]
40000400:	68fb      	ldr	r3, [r7, #12]
40000402:	333c      	adds	r3, #60	; 0x3c
40000404:	683a      	ldr	r2, [r7, #0]
40000406:	601a      	str	r2, [r3, #0]
40000408:	3714      	adds	r7, #20
4000040a:	46bd      	mov	sp, r7
4000040c:	f85d 7b04 	ldr.w	r7, [sp], #4
40000410:	4770      	bx	lr
40000412:	bf00      	nop

40000414 <smp0_handler>:
40000414:	b480      	push	{r7}
40000416:	b083      	sub	sp, #12
40000418:	af00      	add	r7, sp, #0
4000041a:	6078      	str	r0, [r7, #4]
4000041c:	6039      	str	r1, [r7, #0]
4000041e:	370c      	adds	r7, #12
40000420:	46bd      	mov	sp, r7
40000422:	f85d 7b04 	ldr.w	r7, [sp], #4
40000426:	4770      	bx	lr

40000428 <arch_system_preinit>:
40000428:	b580      	push	{r7, lr}
4000042a:	b09a      	sub	sp, #104	; 0x68
4000042c:	af04      	add	r7, sp, #16
4000042e:	6078      	str	r0, [r7, #4]
40000430:	687b      	ldr	r3, [r7, #4]
40000432:	2b00      	cmp	r3, #0
40000434:	d119      	bne.n	4000046a <arch_system_preinit+0x42>
40000436:	2300      	movs	r3, #0
40000438:	657b      	str	r3, [r7, #84]	; 0x54
4000043a:	e013      	b.n	40000464 <arch_system_preinit+0x3c>
4000043c:	6d7b      	ldr	r3, [r7, #84]	; 0x54
4000043e:	f44f 7290 	mov.w	r2, #288	; 0x120
40000442:	fb02 f203 	mul.w	r2, r2, r3
40000446:	f245 23ac 	movw	r3, #21164	; 0x52ac
4000044a:	f2c4 0300 	movt	r3, #16384	; 0x4000
4000044e:	18d1      	adds	r1, r2, r3
40000450:	f245 23a4 	movw	r3, #21156	; 0x52a4
40000454:	f2c4 0300 	movt	r3, #16384	; 0x4000
40000458:	6d7a      	ldr	r2, [r7, #84]	; 0x54
4000045a:	f843 1022 	str.w	r1, [r3, r2, lsl #2]
4000045e:	6d7b      	ldr	r3, [r7, #84]	; 0x54
40000460:	3301      	adds	r3, #1
40000462:	657b      	str	r3, [r7, #84]	; 0x54
40000464:	6d7b      	ldr	r3, [r7, #84]	; 0x54
40000466:	2b01      	cmp	r3, #1
40000468:	dde8      	ble.n	4000043c <arch_system_preinit+0x14>
4000046a:	ee11 3f10 	mrc	15, 0, r3, cr1, cr0, {0}
4000046e:	647b      	str	r3, [r7, #68]	; 0x44
40000470:	6c7b      	ldr	r3, [r7, #68]	; 0x44
40000472:	4619      	mov	r1, r3
40000474:	f643 400c 	movw	r0, #15372	; 0x3c0c
40000478:	f2c4 0000 	movt	r0, #16384	; 0x4000
4000047c:	f003 f85a 	bl	40003534 <tprintf>
40000480:	ee11 3f30 	mrc	15, 0, r3, cr1, cr0, {1}
40000484:	643b      	str	r3, [r7, #64]	; 0x40
40000486:	6c3b      	ldr	r3, [r7, #64]	; 0x40
40000488:	4619      	mov	r1, r3
4000048a:	f643 401c 	movw	r0, #15388	; 0x3c1c
4000048e:	f2c4 0000 	movt	r0, #16384	; 0x4000
40000492:	f003 f84f 	bl	40003534 <tprintf>
40000496:	ee11 3f11 	mrc	15, 0, r3, cr1, cr1, {0}
4000049a:	63fb      	str	r3, [r7, #60]	; 0x3c
4000049c:	6bfb      	ldr	r3, [r7, #60]	; 0x3c
4000049e:	4619      	mov	r1, r3
400004a0:	f643 402c 	movw	r0, #15404	; 0x3c2c
400004a4:	f2c4 0000 	movt	r0, #16384	; 0x4000
400004a8:	f003 f844 	bl	40003534 <tprintf>
400004ac:	ee10 3f11 	mrc	15, 0, r3, cr0, cr1, {0}
400004b0:	63bb      	str	r3, [r7, #56]	; 0x38
400004b2:	6bbb      	ldr	r3, [r7, #56]	; 0x38
400004b4:	4619      	mov	r1, r3
400004b6:	f643 4038 	movw	r0, #15416	; 0x3c38
400004ba:	f2c4 0000 	movt	r0, #16384	; 0x4000
400004be:	f003 f839 	bl	40003534 <tprintf>
400004c2:	ee10 3f31 	mrc	15, 0, r3, cr0, cr1, {1}
400004c6:	637b      	str	r3, [r7, #52]	; 0x34
400004c8:	6b7b      	ldr	r3, [r7, #52]	; 0x34
400004ca:	4619      	mov	r1, r3
400004cc:	f643 4048 	movw	r0, #15432	; 0x3c48
400004d0:	f2c4 0000 	movt	r0, #16384	; 0x4000
400004d4:	f003 f82e 	bl	40003534 <tprintf>
400004d8:	2300      	movs	r3, #0
400004da:	ee0d 3f30 	mcr	15, 0, r3, cr13, cr0, {1}
400004de:	ee30 3f30 	mrc	15, 1, r3, cr0, cr0, {1}
400004e2:	633b      	str	r3, [r7, #48]	; 0x30
400004e4:	6b3b      	ldr	r3, [r7, #48]	; 0x30
400004e6:	62fb      	str	r3, [r7, #44]	; 0x2c
400004e8:	6af9      	ldr	r1, [r7, #44]	; 0x2c
400004ea:	f643 4058 	movw	r0, #15448	; 0x3c58
400004ee:	f2c4 0000 	movt	r0, #16384	; 0x4000
400004f2:	f003 f81f 	bl	40003534 <tprintf>
400004f6:	2306      	movs	r3, #6
400004f8:	653b      	str	r3, [r7, #80]	; 0x50
400004fa:	e070      	b.n	400005de <arch_system_preinit+0x1b6>
400004fc:	6d3b      	ldr	r3, [r7, #80]	; 0x50
400004fe:	2203      	movs	r2, #3
40000500:	fb02 f303 	mul.w	r3, r2, r3
40000504:	2207      	movs	r2, #7
40000506:	fa02 f303 	lsl.w	r3, r2, r3
4000050a:	461a      	mov	r2, r3
4000050c:	6afb      	ldr	r3, [r7, #44]	; 0x2c
4000050e:	4013      	ands	r3, r2
40000510:	2b00      	cmp	r3, #0
40000512:	d061      	beq.n	400005d8 <arch_system_preinit+0x1b0>
40000514:	6d3b      	ldr	r3, [r7, #80]	; 0x50
40000516:	005b      	lsls	r3, r3, #1
40000518:	ee40 3f10 	mcr	15, 2, r3, cr0, cr0, {0}
4000051c:	ee30 3f10 	mrc	15, 1, r3, cr0, cr0, {0}
40000520:	62bb      	str	r3, [r7, #40]	; 0x28
40000522:	6abb      	ldr	r3, [r7, #40]	; 0x28
40000524:	627b      	str	r3, [r7, #36]	; 0x24
40000526:	6a7b      	ldr	r3, [r7, #36]	; 0x24
40000528:	0b5b      	lsrs	r3, r3, #13
4000052a:	f3c3 030e 	ubfx	r3, r3, #0, #15
4000052e:	3301      	adds	r3, #1
40000530:	623b      	str	r3, [r7, #32]
40000532:	6a7b      	ldr	r3, [r7, #36]	; 0x24
40000534:	08db      	lsrs	r3, r3, #3
40000536:	f3c3 0309 	ubfx	r3, r3, #0, #10
4000053a:	3301      	adds	r3, #1
4000053c:	61fb      	str	r3, [r7, #28]
4000053e:	6a7b      	ldr	r3, [r7, #36]	; 0x24
40000540:	f003 0307 	and.w	r3, r3, #7
40000544:	3304      	adds	r3, #4
40000546:	61bb      	str	r3, [r7, #24]
40000548:	69fb      	ldr	r3, [r7, #28]
4000054a:	3b01      	subs	r3, #1
4000054c:	4618      	mov	r0, r3
4000054e:	f7ff fe99 	bl	40000284 <bit_srch_l>
40000552:	4603      	mov	r3, r0
40000554:	3301      	adds	r3, #1
40000556:	617b      	str	r3, [r7, #20]
40000558:	69bb      	ldr	r3, [r7, #24]
4000055a:	6a3a      	ldr	r2, [r7, #32]
4000055c:	fa02 f303 	lsl.w	r3, r2, r3
40000560:	69fa      	ldr	r2, [r7, #28]
40000562:	fb02 f303 	mul.w	r3, r2, r3
40000566:	9302      	str	r3, [sp, #8]
40000568:	697b      	ldr	r3, [r7, #20]
4000056a:	9301      	str	r3, [sp, #4]
4000056c:	69bb      	ldr	r3, [r7, #24]
4000056e:	9300      	str	r3, [sp, #0]
40000570:	69fb      	ldr	r3, [r7, #28]
40000572:	6a3a      	ldr	r2, [r7, #32]
40000574:	6d39      	ldr	r1, [r7, #80]	; 0x50
40000576:	f643 4068 	movw	r0, #15464	; 0x3c68
4000057a:	f2c4 0000 	movt	r0, #16384	; 0x4000
4000057e:	f002 ffd9 	bl	40003534 <tprintf>
40000582:	697b      	ldr	r3, [r7, #20]
40000584:	2b00      	cmp	r3, #0
40000586:	dd27      	ble.n	400005d8 <arch_system_preinit+0x1b0>
40000588:	69bb      	ldr	r3, [r7, #24]
4000058a:	2b00      	cmp	r3, #0
4000058c:	d024      	beq.n	400005d8 <arch_system_preinit+0x1b0>
4000058e:	2300      	movs	r3, #0
40000590:	64fb      	str	r3, [r7, #76]	; 0x4c
40000592:	e01d      	b.n	400005d0 <arch_system_preinit+0x1a8>
40000594:	2300      	movs	r3, #0
40000596:	64bb      	str	r3, [r7, #72]	; 0x48
40000598:	e013      	b.n	400005c2 <arch_system_preinit+0x19a>
4000059a:	697b      	ldr	r3, [r7, #20]
4000059c:	f1c3 0320 	rsb	r3, r3, #32
400005a0:	6cfa      	ldr	r2, [r7, #76]	; 0x4c
400005a2:	409a      	lsls	r2, r3
400005a4:	69bb      	ldr	r3, [r7, #24]
400005a6:	6cb9      	ldr	r1, [r7, #72]	; 0x48
400005a8:	fa01 f303 	lsl.w	r3, r1, r3
400005ac:	4313      	orrs	r3, r2
400005ae:	6d3a      	ldr	r2, [r7, #80]	; 0x50
400005b0:	0052      	lsls	r2, r2, #1
400005b2:	4313      	orrs	r3, r2
400005b4:	613b      	str	r3, [r7, #16]
400005b6:	693b      	ldr	r3, [r7, #16]
400005b8:	ee07 3f56 	mcr	15, 0, r3, cr7, cr6, {2}
400005bc:	6cbb      	ldr	r3, [r7, #72]	; 0x48
400005be:	3301      	adds	r3, #1
400005c0:	64bb      	str	r3, [r7, #72]	; 0x48
400005c2:	6cba      	ldr	r2, [r7, #72]	; 0x48
400005c4:	6a3b      	ldr	r3, [r7, #32]
400005c6:	429a      	cmp	r2, r3
400005c8:	d3e7      	bcc.n	4000059a <arch_system_preinit+0x172>
400005ca:	6cfb      	ldr	r3, [r7, #76]	; 0x4c
400005cc:	3301      	adds	r3, #1
400005ce:	64fb      	str	r3, [r7, #76]	; 0x4c
400005d0:	6cfa      	ldr	r2, [r7, #76]	; 0x4c
400005d2:	69fb      	ldr	r3, [r7, #28]
400005d4:	429a      	cmp	r2, r3
400005d6:	d3dd      	bcc.n	40000594 <arch_system_preinit+0x16c>
400005d8:	6d3b      	ldr	r3, [r7, #80]	; 0x50
400005da:	3b01      	subs	r3, #1
400005dc:	653b      	str	r3, [r7, #80]	; 0x50
400005de:	6d3b      	ldr	r3, [r7, #80]	; 0x50
400005e0:	2b00      	cmp	r3, #0
400005e2:	da8b      	bge.n	400004fc <arch_system_preinit+0xd4>
400005e4:	ee11 3f50 	mrc	15, 0, r3, cr1, cr0, {2}
400005e8:	60fb      	str	r3, [r7, #12]
400005ea:	68fb      	ldr	r3, [r7, #12]
400005ec:	60bb      	str	r3, [r7, #8]
400005ee:	68bb      	ldr	r3, [r7, #8]
400005f0:	f023 4370 	bic.w	r3, r3, #4026531840	; 0xf0000000
400005f4:	60bb      	str	r3, [r7, #8]
400005f6:	68bb      	ldr	r3, [r7, #8]
400005f8:	f443 0370 	orr.w	r3, r3, #15728640	; 0xf00000
400005fc:	60bb      	str	r3, [r7, #8]
400005fe:	68bb      	ldr	r3, [r7, #8]
40000600:	ee01 3f50 	mcr	15, 0, r3, cr1, cr0, {2}
40000604:	f04f 4380 	mov.w	r3, #1073741824	; 0x40000000
40000608:	eee8 3a10 	vmsr	fpexc, r3
4000060c:	2300      	movs	r3, #0
4000060e:	eee1 3a10 	vmsr	fpscr, r3
40000612:	6878      	ldr	r0, [r7, #4]
40000614:	f000 f9c0 	bl	40000998 <mmgr_init>
40000618:	6878      	ldr	r0, [r7, #4]
4000061a:	f001 fc41 	bl	40001ea0 <arch_irq_init>
4000061e:	687b      	ldr	r3, [r7, #4]
40000620:	2b00      	cmp	r3, #0
40000622:	d117      	bne.n	40000654 <arch_system_preinit+0x22c>
40000624:	2200      	movs	r2, #0
40000626:	f240 4115 	movw	r1, #1045	; 0x415
4000062a:	f2c4 0100 	movt	r1, #16384	; 0x4000
4000062e:	2000      	movs	r0, #0
40000630:	f001 fbc4 	bl	40001dbc <__irq_add_handler>
40000634:	2101      	movs	r1, #1
40000636:	2000      	movs	r0, #0
40000638:	f001 fbe0 	bl	40001dfc <__irq_set_enable>
4000063c:	2200      	movs	r2, #0
4000063e:	f240 4115 	movw	r1, #1045	; 0x415
40000642:	f2c4 0100 	movt	r1, #16384	; 0x4000
40000646:	2001      	movs	r0, #1
40000648:	f001 fbb8 	bl	40001dbc <__irq_add_handler>
4000064c:	2101      	movs	r1, #1
4000064e:	2001      	movs	r0, #1
40000650:	f001 fbd4 	bl	40001dfc <__irq_set_enable>
40000654:	3758      	adds	r7, #88	; 0x58
40000656:	46bd      	mov	sp, r7
40000658:	bd80      	pop	{r7, pc}
4000065a:	bf00      	nop

4000065c <arch_register_st_memory>:
4000065c:	b580      	push	{r7, lr}
4000065e:	af00      	add	r7, sp, #0
40000660:	f24a 0300 	movw	r3, #40960	; 0xa000
40000664:	f2c4 0302 	movt	r3, #16386	; 0x4002
40000668:	f1c3 4300 	rsb	r3, r3, #2147483648	; 0x80000000
4000066c:	4619      	mov	r1, r3
4000066e:	f24a 0000 	movw	r0, #40960	; 0xa000
40000672:	f2c4 0002 	movt	r0, #16386	; 0x4002
40000676:	f001 fcff 	bl	40002078 <st_malloc_init>
4000067a:	bd80      	pop	{r7, pc}

4000067c <arch_register_normal_memory>:
4000067c:	b480      	push	{r7}
4000067e:	af00      	add	r7, sp, #0
40000680:	4618      	mov	r0, r3
40000682:	46bd      	mov	sp, r7
40000684:	f85d 7b04 	ldr.w	r7, [sp], #4
40000688:	4770      	bx	lr
4000068a:	bf00      	nop

4000068c <arch_system_postinit>:
4000068c:	b480      	push	{r7}
4000068e:	b083      	sub	sp, #12
40000690:	af00      	add	r7, sp, #0
40000692:	6078      	str	r0, [r7, #4]
40000694:	370c      	adds	r7, #12
40000696:	46bd      	mov	sp, r7
40000698:	f85d 7b04 	ldr.w	r7, [sp], #4
4000069c:	4770      	bx	lr
4000069e:	bf00      	nop

400006a0 <arch_can_dispatch>:
400006a0:	b480      	push	{r7}
400006a2:	b083      	sub	sp, #12
400006a4:	af00      	add	r7, sp, #0
400006a6:	2300      	movs	r3, #0
400006a8:	71fb      	strb	r3, [r7, #7]
400006aa:	ee10 3fb0 	mrc	15, 0, r3, cr0, cr0, {5}
400006ae:	603b      	str	r3, [r7, #0]
400006b0:	683b      	ldr	r3, [r7, #0]
400006b2:	b2da      	uxtb	r2, r3
400006b4:	f245 43ec 	movw	r3, #21740	; 0x54ec
400006b8:	f2c4 0300 	movt	r3, #16384	; 0x4000
400006bc:	f853 3022 	ldr.w	r3, [r3, r2, lsl #2]
400006c0:	2b00      	cmp	r3, #0
400006c2:	d101      	bne.n	400006c8 <arch_can_dispatch+0x28>
400006c4:	2301      	movs	r3, #1
400006c6:	71fb      	strb	r3, [r7, #7]
400006c8:	79fb      	ldrb	r3, [r7, #7]
400006ca:	4618      	mov	r0, r3
400006cc:	370c      	adds	r7, #12
400006ce:	46bd      	mov	sp, r7
400006d0:	f85d 7b04 	ldr.w	r7, [sp], #4
400006d4:	4770      	bx	lr
400006d6:	bf00      	nop

400006d8 <ipi_request_dispatch_one>:
400006d8:	b480      	push	{r7}
400006da:	b085      	sub	sp, #20
400006dc:	af00      	add	r7, sp, #0
400006de:	6078      	str	r0, [r7, #4]
400006e0:	687b      	ldr	r3, [r7, #4]
400006e2:	f8d3 311c 	ldr.w	r3, [r3, #284]	; 0x11c
400006e6:	60fb      	str	r3, [r7, #12]
400006e8:	f44f 53f8 	mov.w	r3, #7936	; 0x1f00
400006ec:	f2c0 13c8 	movt	r3, #456	; 0x1c8
400006f0:	68fa      	ldr	r2, [r7, #12]
400006f2:	f44f 3180 	mov.w	r1, #65536	; 0x10000
400006f6:	fa01 f202 	lsl.w	r2, r1, r2
400006fa:	601a      	str	r2, [r3, #0]
400006fc:	3714      	adds	r7, #20
400006fe:	46bd      	mov	sp, r7
40000700:	f85d 7b04 	ldr.w	r7, [sp], #4
40000704:	4770      	bx	lr
40000706:	bf00      	nop

40000708 <init_task_arch_depend>:
40000708:	b580      	push	{r7, lr}
4000070a:	af00      	add	r7, sp, #0
4000070c:	f7ff fd8c 	bl	40000228 <init_task_board_depend>
40000710:	bd80      	pop	{r7, pc}
40000712:	bf00      	nop

40000714 <raise>:
40000714:	b580      	push	{r7, lr}
40000716:	b082      	sub	sp, #8
40000718:	af00      	add	r7, sp, #0
4000071a:	b672      	cpsid	i
4000071c:	f643 4088 	movw	r0, #15496	; 0x3c88
40000720:	f2c4 0000 	movt	r0, #16384	; 0x4000
40000724:	f002 ff06 	bl	40003534 <tprintf>
40000728:	2300      	movs	r3, #0
4000072a:	681b      	ldr	r3, [r3, #0]
4000072c:	607b      	str	r3, [r7, #4]
4000072e:	e7fe      	b.n	4000072e <raise+0x1a>

40000730 <mmgr_is_section>:
40000730:	b480      	push	{r7}
40000732:	b085      	sub	sp, #20
40000734:	af00      	add	r7, sp, #0
40000736:	6078      	str	r0, [r7, #4]
40000738:	2300      	movs	r3, #0
4000073a:	73fb      	strb	r3, [r7, #15]
4000073c:	687b      	ldr	r3, [r7, #4]
4000073e:	f003 0303 	and.w	r3, r3, #3
40000742:	2b01      	cmp	r3, #1
40000744:	d101      	bne.n	4000074a <mmgr_is_section+0x1a>
40000746:	2301      	movs	r3, #1
40000748:	73fb      	strb	r3, [r7, #15]
4000074a:	7bfb      	ldrb	r3, [r7, #15]
4000074c:	4618      	mov	r0, r3
4000074e:	3714      	adds	r7, #20
40000750:	46bd      	mov	sp, r7
40000752:	f85d 7b04 	ldr.w	r7, [sp], #4
40000756:	4770      	bx	lr

40000758 <sectiontbl_alloc>:
40000758:	b580      	push	{r7, lr}
4000075a:	b082      	sub	sp, #8
4000075c:	af00      	add	r7, sp, #0
4000075e:	f44f 4180 	mov.w	r1, #16384	; 0x4000
40000762:	f44f 4080 	mov.w	r0, #16384	; 0x4000
40000766:	f001 fc9f 	bl	400020a8 <st_malloc_align>
4000076a:	6078      	str	r0, [r7, #4]
4000076c:	f44f 4280 	mov.w	r2, #16384	; 0x4000
40000770:	2100      	movs	r1, #0
40000772:	6878      	ldr	r0, [r7, #4]
40000774:	f002 fc4e 	bl	40003014 <memset>
40000778:	687b      	ldr	r3, [r7, #4]
4000077a:	4618      	mov	r0, r3
4000077c:	3708      	adds	r7, #8
4000077e:	46bd      	mov	sp, r7
40000780:	bd80      	pop	{r7, pc}
40000782:	bf00      	nop

40000784 <tbl_alloc>:
40000784:	b580      	push	{r7, lr}
40000786:	b082      	sub	sp, #8
40000788:	af00      	add	r7, sp, #0
4000078a:	f44f 6180 	mov.w	r1, #1024	; 0x400
4000078e:	f44f 6080 	mov.w	r0, #1024	; 0x400
40000792:	f001 fc89 	bl	400020a8 <st_malloc_align>
40000796:	6078      	str	r0, [r7, #4]
40000798:	f44f 6280 	mov.w	r2, #1024	; 0x400
4000079c:	2100      	movs	r1, #0
4000079e:	6878      	ldr	r0, [r7, #4]
400007a0:	f002 fc38 	bl	40003014 <memset>
400007a4:	687b      	ldr	r3, [r7, #4]
400007a6:	4618      	mov	r0, r3
400007a8:	3708      	adds	r7, #8
400007aa:	46bd      	mov	sp, r7
400007ac:	bd80      	pop	{r7, pc}
400007ae:	bf00      	nop

400007b0 <mmgr_add_entry>:
400007b0:	b580      	push	{r7, lr}
400007b2:	b086      	sub	sp, #24
400007b4:	af00      	add	r7, sp, #0
400007b6:	60f8      	str	r0, [r7, #12]
400007b8:	60b9      	str	r1, [r7, #8]
400007ba:	607a      	str	r2, [r7, #4]
400007bc:	68fb      	ldr	r3, [r7, #12]
400007be:	f423 637f 	bic.w	r3, r3, #4080	; 0xff0
400007c2:	f023 030f 	bic.w	r3, r3, #15
400007c6:	617b      	str	r3, [r7, #20]
400007c8:	68fa      	ldr	r2, [r7, #12]
400007ca:	68bb      	ldr	r3, [r7, #8]
400007cc:	441a      	add	r2, r3
400007ce:	697b      	ldr	r3, [r7, #20]
400007d0:	1ad3      	subs	r3, r2, r3
400007d2:	60bb      	str	r3, [r7, #8]
400007d4:	68bb      	ldr	r3, [r7, #8]
400007d6:	f603 73ff 	addw	r3, r3, #4095	; 0xfff
400007da:	f423 637f 	bic.w	r3, r3, #4080	; 0xff0
400007de:	f023 030f 	bic.w	r3, r3, #15
400007e2:	60bb      	str	r3, [r7, #8]
400007e4:	e090      	b.n	40000908 <mmgr_add_entry+0x158>
400007e6:	697b      	ldr	r3, [r7, #20]
400007e8:	f3c3 0313 	ubfx	r3, r3, #0, #20
400007ec:	2b00      	cmp	r3, #0
400007ee:	d12b      	bne.n	40000848 <mmgr_add_entry+0x98>
400007f0:	f244 13cc 	movw	r3, #16844	; 0x41cc
400007f4:	f2c4 0300 	movt	r3, #16384	; 0x4000
400007f8:	681a      	ldr	r2, [r3, #0]
400007fa:	697b      	ldr	r3, [r7, #20]
400007fc:	0d1b      	lsrs	r3, r3, #20
400007fe:	009b      	lsls	r3, r3, #2
40000800:	4413      	add	r3, r2
40000802:	681b      	ldr	r3, [r3, #0]
40000804:	2b00      	cmp	r3, #0
40000806:	d11f      	bne.n	40000848 <mmgr_add_entry+0x98>
40000808:	68bb      	ldr	r3, [r7, #8]
4000080a:	f5b3 1f80 	cmp.w	r3, #1048576	; 0x100000
4000080e:	d31b      	bcc.n	40000848 <mmgr_add_entry+0x98>
40000810:	f244 13cc 	movw	r3, #16844	; 0x41cc
40000814:	f2c4 0300 	movt	r3, #16384	; 0x4000
40000818:	681a      	ldr	r2, [r3, #0]
4000081a:	697b      	ldr	r3, [r7, #20]
4000081c:	0d1b      	lsrs	r3, r3, #20
4000081e:	009b      	lsls	r3, r3, #2
40000820:	441a      	add	r2, r3
40000822:	f643 4394 	movw	r3, #15508	; 0x3c94
40000826:	f2c4 0300 	movt	r3, #16384	; 0x4000
4000082a:	6879      	ldr	r1, [r7, #4]
4000082c:	f853 1031 	ldr.w	r1, [r3, r1, lsl #3]
40000830:	697b      	ldr	r3, [r7, #20]
40000832:	430b      	orrs	r3, r1
40000834:	6013      	str	r3, [r2, #0]
40000836:	697b      	ldr	r3, [r7, #20]
40000838:	f503 1380 	add.w	r3, r3, #1048576	; 0x100000
4000083c:	617b      	str	r3, [r7, #20]
4000083e:	68bb      	ldr	r3, [r7, #8]
40000840:	f5a3 1380 	sub.w	r3, r3, #1048576	; 0x100000
40000844:	60bb      	str	r3, [r7, #8]
40000846:	e05f      	b.n	40000908 <mmgr_add_entry+0x158>
40000848:	f244 13cc 	movw	r3, #16844	; 0x41cc
4000084c:	f2c4 0300 	movt	r3, #16384	; 0x4000
40000850:	681a      	ldr	r2, [r3, #0]
40000852:	697b      	ldr	r3, [r7, #20]
40000854:	0d1b      	lsrs	r3, r3, #20
40000856:	009b      	lsls	r3, r3, #2
40000858:	4413      	add	r3, r2
4000085a:	681b      	ldr	r3, [r3, #0]
4000085c:	2b00      	cmp	r3, #0
4000085e:	d110      	bne.n	40000882 <mmgr_add_entry+0xd2>
40000860:	f7ff ff90 	bl	40000784 <tbl_alloc>
40000864:	6138      	str	r0, [r7, #16]
40000866:	f244 13cc 	movw	r3, #16844	; 0x41cc
4000086a:	f2c4 0300 	movt	r3, #16384	; 0x4000
4000086e:	681a      	ldr	r2, [r3, #0]
40000870:	697b      	ldr	r3, [r7, #20]
40000872:	0d1b      	lsrs	r3, r3, #20
40000874:	009b      	lsls	r3, r3, #2
40000876:	4413      	add	r3, r2
40000878:	693a      	ldr	r2, [r7, #16]
4000087a:	f042 0201 	orr.w	r2, r2, #1
4000087e:	601a      	str	r2, [r3, #0]
40000880:	e00e      	b.n	400008a0 <mmgr_add_entry+0xf0>
40000882:	f244 13cc 	movw	r3, #16844	; 0x41cc
40000886:	f2c4 0300 	movt	r3, #16384	; 0x4000
4000088a:	681a      	ldr	r2, [r3, #0]
4000088c:	697b      	ldr	r3, [r7, #20]
4000088e:	0d1b      	lsrs	r3, r3, #20
40000890:	009b      	lsls	r3, r3, #2
40000892:	4413      	add	r3, r2
40000894:	681b      	ldr	r3, [r3, #0]
40000896:	f423 737f 	bic.w	r3, r3, #1020	; 0x3fc
4000089a:	f023 0303 	bic.w	r3, r3, #3
4000089e:	613b      	str	r3, [r7, #16]
400008a0:	697b      	ldr	r3, [r7, #20]
400008a2:	0b1b      	lsrs	r3, r3, #12
400008a4:	b2db      	uxtb	r3, r3
400008a6:	009b      	lsls	r3, r3, #2
400008a8:	693a      	ldr	r2, [r7, #16]
400008aa:	4413      	add	r3, r2
400008ac:	681b      	ldr	r3, [r3, #0]
400008ae:	2b00      	cmp	r3, #0
400008b0:	d00a      	beq.n	400008c8 <mmgr_add_entry+0x118>
400008b2:	697b      	ldr	r3, [r7, #20]
400008b4:	0b1b      	lsrs	r3, r3, #12
400008b6:	b2db      	uxtb	r3, r3
400008b8:	693a      	ldr	r2, [r7, #16]
400008ba:	6979      	ldr	r1, [r7, #20]
400008bc:	f643 40ac 	movw	r0, #15532	; 0x3cac
400008c0:	f2c4 0000 	movt	r0, #16384	; 0x4000
400008c4:	f002 fe36 	bl	40003534 <tprintf>
400008c8:	697b      	ldr	r3, [r7, #20]
400008ca:	0b1b      	lsrs	r3, r3, #12
400008cc:	b2db      	uxtb	r3, r3
400008ce:	009b      	lsls	r3, r3, #2
400008d0:	693a      	ldr	r2, [r7, #16]
400008d2:	18d1      	adds	r1, r2, r3
400008d4:	f643 4294 	movw	r2, #15508	; 0x3c94
400008d8:	f2c4 0200 	movt	r2, #16384	; 0x4000
400008dc:	687b      	ldr	r3, [r7, #4]
400008de:	00db      	lsls	r3, r3, #3
400008e0:	4413      	add	r3, r2
400008e2:	685a      	ldr	r2, [r3, #4]
400008e4:	697b      	ldr	r3, [r7, #20]
400008e6:	4313      	orrs	r3, r2
400008e8:	600b      	str	r3, [r1, #0]
400008ea:	697b      	ldr	r3, [r7, #20]
400008ec:	f503 5380 	add.w	r3, r3, #4096	; 0x1000
400008f0:	617b      	str	r3, [r7, #20]
400008f2:	68bb      	ldr	r3, [r7, #8]
400008f4:	f5b3 5f80 	cmp.w	r3, #4096	; 0x1000
400008f8:	d802      	bhi.n	40000900 <mmgr_add_entry+0x150>
400008fa:	2300      	movs	r3, #0
400008fc:	60bb      	str	r3, [r7, #8]
400008fe:	e003      	b.n	40000908 <mmgr_add_entry+0x158>
40000900:	68bb      	ldr	r3, [r7, #8]
40000902:	f5a3 5380 	sub.w	r3, r3, #4096	; 0x1000
40000906:	60bb      	str	r3, [r7, #8]
40000908:	68bb      	ldr	r3, [r7, #8]
4000090a:	2b00      	cmp	r3, #0
4000090c:	f47f af6b 	bne.w	400007e6 <mmgr_add_entry+0x36>
40000910:	3718      	adds	r7, #24
40000912:	46bd      	mov	sp, r7
40000914:	bd80      	pop	{r7, pc}
40000916:	bf00      	nop

40000918 <mmgr_mmu_init>:
40000918:	b580      	push	{r7, lr}
4000091a:	b084      	sub	sp, #16
4000091c:	af00      	add	r7, sp, #0
4000091e:	f04f 33ff 	mov.w	r3, #4294967295
40000922:	ee03 3f10 	mcr	15, 0, r3, cr3, cr0, {0}
40000926:	2300      	movs	r3, #0
40000928:	ee02 3f50 	mcr	15, 0, r3, cr2, cr0, {2}
4000092c:	f244 13cc 	movw	r3, #16844	; 0x41cc
40000930:	f2c4 0300 	movt	r3, #16384	; 0x4000
40000934:	681b      	ldr	r3, [r3, #0]
40000936:	ee02 3f10 	mcr	15, 0, r3, cr2, cr0, {0}
4000093a:	2300      	movs	r3, #0
4000093c:	ee02 3f30 	mcr	15, 0, r3, cr2, cr0, {1}
40000940:	ee11 3f10 	mrc	15, 0, r3, cr1, cr0, {0}
40000944:	60fb      	str	r3, [r7, #12]
40000946:	68fb      	ldr	r3, [r7, #12]
40000948:	60bb      	str	r3, [r7, #8]
4000094a:	68bb      	ldr	r3, [r7, #8]
4000094c:	f423 53c0 	bic.w	r3, r3, #6144	; 0x1800
40000950:	ee01 3f10 	mcr	15, 0, r3, cr1, cr0, {0}
40000954:	2300      	movs	r3, #0
40000956:	ee07 3f11 	mcr	15, 0, r3, cr7, cr1, {0}
4000095a:	2300      	movs	r3, #0
4000095c:	ee07 3fd1 	mcr	15, 0, r3, cr7, cr1, {6}
40000960:	2300      	movs	r3, #0
40000962:	ee08 3f13 	mcr	15, 0, r3, cr8, cr3, {0}
40000966:	f3bf 8f4f 	dsb	sy
4000096a:	68bb      	ldr	r3, [r7, #8]
4000096c:	f443 53c0 	orr.w	r3, r3, #6144	; 0x1800
40000970:	f043 0305 	orr.w	r3, r3, #5
40000974:	ee01 3f10 	mcr	15, 0, r3, cr1, cr0, {0}
40000978:	f3bf 8f6f 	isb	sy
4000097c:	ee11 3f10 	mrc	15, 0, r3, cr1, cr0, {0}
40000980:	607b      	str	r3, [r7, #4]
40000982:	687b      	ldr	r3, [r7, #4]
40000984:	4619      	mov	r1, r3
40000986:	f643 40e4 	movw	r0, #15588	; 0x3ce4
4000098a:	f2c4 0000 	movt	r0, #16384	; 0x4000
4000098e:	f002 fdd1 	bl	40003534 <tprintf>
40000992:	3710      	adds	r7, #16
40000994:	46bd      	mov	sp, r7
40000996:	bd80      	pop	{r7, pc}

40000998 <mmgr_init>:
40000998:	b580      	push	{r7, lr}
4000099a:	b082      	sub	sp, #8
4000099c:	af00      	add	r7, sp, #0
4000099e:	6078      	str	r0, [r7, #4]
400009a0:	687b      	ldr	r3, [r7, #4]
400009a2:	2b00      	cmp	r3, #0
400009a4:	d12f      	bne.n	40000a06 <mmgr_init+0x6e>
400009a6:	f7ff fed7 	bl	40000758 <sectiontbl_alloc>
400009aa:	4602      	mov	r2, r0
400009ac:	f244 13cc 	movw	r3, #16844	; 0x41cc
400009b0:	f2c4 0300 	movt	r3, #16384	; 0x4000
400009b4:	601a      	str	r2, [r3, #0]
400009b6:	f643 628c 	movw	r2, #16012	; 0x3e8c
400009ba:	f2c4 0200 	movt	r2, #16384	; 0x4000
400009be:	f240 0300 	movw	r3, #0
400009c2:	f2c4 0300 	movt	r3, #16384	; 0x4000
400009c6:	1ad3      	subs	r3, r2, r3
400009c8:	2200      	movs	r2, #0
400009ca:	4619      	mov	r1, r3
400009cc:	f240 0000 	movw	r0, #0
400009d0:	f2c4 0000 	movt	r0, #16384	; 0x4000
400009d4:	f7ff feec 	bl	400007b0 <mmgr_add_entry>
400009d8:	f244 0300 	movw	r3, #16384	; 0x4000
400009dc:	f2c4 0300 	movt	r3, #16384	; 0x4000
400009e0:	f1c3 4300 	rsb	r3, r3, #2147483648	; 0x80000000
400009e4:	2201      	movs	r2, #1
400009e6:	4619      	mov	r1, r3
400009e8:	f244 0000 	movw	r0, #16384	; 0x4000
400009ec:	f2c4 0000 	movt	r0, #16384	; 0x4000
400009f0:	f7ff fede 	bl	400007b0 <mmgr_add_entry>
400009f4:	2202      	movs	r2, #2
400009f6:	f44f 4100 	mov.w	r1, #32768	; 0x8000
400009fa:	f04f 70e4 	mov.w	r0, #29884416	; 0x1c80000
400009fe:	f7ff fed7 	bl	400007b0 <mmgr_add_entry>
40000a02:	f7ff fbf5 	bl	400001f0 <board_mmgr_init>
40000a06:	f7ff ff87 	bl	40000918 <mmgr_mmu_init>
40000a0a:	3708      	adds	r7, #8
40000a0c:	46bd      	mov	sp, r7
40000a0e:	bd80      	pop	{r7, pc}

40000a10 <flag_twait>:
40000a10:	b580      	push	{r7, lr}
40000a12:	b08a      	sub	sp, #40	; 0x28
40000a14:	af00      	add	r7, sp, #0
40000a16:	60f8      	str	r0, [r7, #12]
40000a18:	60b9      	str	r1, [r7, #8]
40000a1a:	607a      	str	r2, [r7, #4]
40000a1c:	603b      	str	r3, [r7, #0]
40000a1e:	68fb      	ldr	r3, [r7, #12]
40000a20:	617b      	str	r3, [r7, #20]
40000a22:	68bb      	ldr	r3, [r7, #8]
40000a24:	61bb      	str	r3, [r7, #24]
40000a26:	687b      	ldr	r3, [r7, #4]
40000a28:	61fb      	str	r3, [r7, #28]
40000a2a:	683b      	ldr	r3, [r7, #0]
40000a2c:	623b      	str	r3, [r7, #32]
40000a2e:	6b3b      	ldr	r3, [r7, #48]	; 0x30
40000a30:	627b      	str	r3, [r7, #36]	; 0x24
40000a32:	f107 0314 	add.w	r3, r7, #20
40000a36:	4618      	mov	r0, r3
40000a38:	f002 ffd8 	bl	400039ec <flag_twait_stub>
40000a3c:	4603      	mov	r3, r0
40000a3e:	4618      	mov	r0, r3
40000a40:	3728      	adds	r7, #40	; 0x28
40000a42:	46bd      	mov	sp, r7
40000a44:	bd80      	pop	{r7, pc}
40000a46:	bf00      	nop

40000a48 <idle_task>:
40000a48:	b4f0      	push	{r4, r5, r6, r7}
40000a4a:	b088      	sub	sp, #32
40000a4c:	af00      	add	r7, sp, #0
40000a4e:	b672      	cpsid	i
40000a50:	f3bf 8f4f 	dsb	sy
40000a54:	bf30      	wfi
40000a56:	ec50 5f0e 	mrrc	15, 0, r5, r0, cr14
40000a5a:	61fd      	str	r5, [r7, #28]
40000a5c:	61b8      	str	r0, [r7, #24]
40000a5e:	69b8      	ldr	r0, [r7, #24]
40000a60:	4605      	mov	r5, r0
40000a62:	f04f 0600 	mov.w	r6, #0
40000a66:	002a      	movs	r2, r5
40000a68:	2100      	movs	r1, #0
40000a6a:	69f8      	ldr	r0, [r7, #28]
40000a6c:	4605      	mov	r5, r0
40000a6e:	f04f 0600 	mov.w	r6, #0
40000a72:	ea45 0501 	orr.w	r5, r5, r1
40000a76:	ea46 0602 	orr.w	r6, r6, r2
40000a7a:	e9c7 5604 	strd	r5, r6, [r7, #16]
40000a7e:	ec50 5f2e 	mrrc	15, 2, r5, r0, cr14
40000a82:	60fd      	str	r5, [r7, #12]
40000a84:	60b8      	str	r0, [r7, #8]
40000a86:	68b8      	ldr	r0, [r7, #8]
40000a88:	4605      	mov	r5, r0
40000a8a:	f04f 0600 	mov.w	r6, #0
40000a8e:	002c      	movs	r4, r5
40000a90:	2300      	movs	r3, #0
40000a92:	68f8      	ldr	r0, [r7, #12]
40000a94:	4605      	mov	r5, r0
40000a96:	f04f 0600 	mov.w	r6, #0
40000a9a:	ea45 0503 	orr.w	r5, r5, r3
40000a9e:	ea46 0604 	orr.w	r6, r6, r4
40000aa2:	e9c7 5600 	strd	r5, r6, [r7]
40000aa6:	b662      	cpsie	i
40000aa8:	e7d1      	b.n	40000a4e <idle_task+0x6>
40000aaa:	bf00      	nop

40000aac <fault_handler>:
40000aac:	b580      	push	{r7, lr}
40000aae:	b08a      	sub	sp, #40	; 0x28
40000ab0:	af02      	add	r7, sp, #8
40000ab2:	6078      	str	r0, [r7, #4]
40000ab4:	6039      	str	r1, [r7, #0]
40000ab6:	ee10 3fb0 	mrc	15, 0, r3, cr0, cr0, {5}
40000aba:	61fb      	str	r3, [r7, #28]
40000abc:	69fb      	ldr	r3, [r7, #28]
40000abe:	b2db      	uxtb	r3, r3
40000ac0:	4619      	mov	r1, r3
40000ac2:	f643 40f4 	movw	r0, #15604	; 0x3cf4
40000ac6:	f2c4 0000 	movt	r0, #16384	; 0x4000
40000aca:	f002 fd33 	bl	40003534 <tprintf>
40000ace:	687b      	ldr	r3, [r7, #4]
40000ad0:	2b01      	cmp	r3, #1
40000ad2:	d00b      	beq.n	40000aec <fault_handler+0x40>
40000ad4:	2b01      	cmp	r3, #1
40000ad6:	d302      	bcc.n	40000ade <fault_handler+0x32>
40000ad8:	2b02      	cmp	r3, #2
40000ada:	d00e      	beq.n	40000afa <fault_handler+0x4e>
40000adc:	e014      	b.n	40000b08 <fault_handler+0x5c>
40000ade:	f643 40fc 	movw	r0, #15612	; 0x3cfc
40000ae2:	f2c4 0000 	movt	r0, #16384	; 0x4000
40000ae6:	f002 fd25 	bl	40003534 <tprintf>
40000aea:	e014      	b.n	40000b16 <fault_handler+0x6a>
40000aec:	f643 5004 	movw	r0, #15620	; 0x3d04
40000af0:	f2c4 0000 	movt	r0, #16384	; 0x4000
40000af4:	f002 fd1e 	bl	40003534 <tprintf>
40000af8:	e00d      	b.n	40000b16 <fault_handler+0x6a>
40000afa:	f643 5018 	movw	r0, #15640	; 0x3d18
40000afe:	f2c4 0000 	movt	r0, #16384	; 0x4000
40000b02:	f002 fd17 	bl	40003534 <tprintf>
40000b06:	e006      	b.n	40000b16 <fault_handler+0x6a>
40000b08:	f643 5028 	movw	r0, #15656	; 0x3d28
40000b0c:	f2c4 0000 	movt	r0, #16384	; 0x4000
40000b10:	f002 fd10 	bl	40003534 <tprintf>
40000b14:	bf00      	nop
40000b16:	683b      	ldr	r3, [r7, #0]
40000b18:	3310      	adds	r3, #16
40000b1a:	6819      	ldr	r1, [r3, #0]
40000b1c:	683b      	ldr	r3, [r7, #0]
40000b1e:	3314      	adds	r3, #20
40000b20:	681a      	ldr	r2, [r3, #0]
40000b22:	683b      	ldr	r3, [r7, #0]
40000b24:	3318      	adds	r3, #24
40000b26:	6818      	ldr	r0, [r3, #0]
40000b28:	683b      	ldr	r3, [r7, #0]
40000b2a:	331c      	adds	r3, #28
40000b2c:	681b      	ldr	r3, [r3, #0]
40000b2e:	9300      	str	r3, [sp, #0]
40000b30:	4603      	mov	r3, r0
40000b32:	f643 5038 	movw	r0, #15672	; 0x3d38
40000b36:	f2c4 0000 	movt	r0, #16384	; 0x4000
40000b3a:	f002 fcfb 	bl	40003534 <tprintf>
40000b3e:	683b      	ldr	r3, [r7, #0]
40000b40:	3320      	adds	r3, #32
40000b42:	6819      	ldr	r1, [r3, #0]
40000b44:	683b      	ldr	r3, [r7, #0]
40000b46:	3324      	adds	r3, #36	; 0x24
40000b48:	681a      	ldr	r2, [r3, #0]
40000b4a:	683b      	ldr	r3, [r7, #0]
40000b4c:	3328      	adds	r3, #40	; 0x28
40000b4e:	6818      	ldr	r0, [r3, #0]
40000b50:	683b      	ldr	r3, [r7, #0]
40000b52:	332c      	adds	r3, #44	; 0x2c
40000b54:	681b      	ldr	r3, [r3, #0]
40000b56:	9300      	str	r3, [sp, #0]
40000b58:	4603      	mov	r3, r0
40000b5a:	f643 5060 	movw	r0, #15712	; 0x3d60
40000b5e:	f2c4 0000 	movt	r0, #16384	; 0x4000
40000b62:	f002 fce7 	bl	40003534 <tprintf>
40000b66:	683b      	ldr	r3, [r7, #0]
40000b68:	3330      	adds	r3, #48	; 0x30
40000b6a:	6819      	ldr	r1, [r3, #0]
40000b6c:	683b      	ldr	r3, [r7, #0]
40000b6e:	3334      	adds	r3, #52	; 0x34
40000b70:	681a      	ldr	r2, [r3, #0]
40000b72:	683b      	ldr	r3, [r7, #0]
40000b74:	3338      	adds	r3, #56	; 0x38
40000b76:	6818      	ldr	r0, [r3, #0]
40000b78:	683b      	ldr	r3, [r7, #0]
40000b7a:	333c      	adds	r3, #60	; 0x3c
40000b7c:	681b      	ldr	r3, [r3, #0]
40000b7e:	9300      	str	r3, [sp, #0]
40000b80:	4603      	mov	r3, r0
40000b82:	f643 5088 	movw	r0, #15752	; 0x3d88
40000b86:	f2c4 0000 	movt	r0, #16384	; 0x4000
40000b8a:	f002 fcd3 	bl	40003534 <tprintf>
40000b8e:	683b      	ldr	r3, [r7, #0]
40000b90:	3340      	adds	r3, #64	; 0x40
40000b92:	6819      	ldr	r1, [r3, #0]
40000b94:	683b      	ldr	r3, [r7, #0]
40000b96:	3344      	adds	r3, #68	; 0x44
40000b98:	681a      	ldr	r2, [r3, #0]
40000b9a:	683b      	ldr	r3, [r7, #0]
40000b9c:	681b      	ldr	r3, [r3, #0]
40000b9e:	f643 50b0 	movw	r0, #15792	; 0x3db0
40000ba2:	f2c4 0000 	movt	r0, #16384	; 0x4000
40000ba6:	f002 fcc5 	bl	40003534 <tprintf>
40000baa:	683b      	ldr	r3, [r7, #0]
40000bac:	3304      	adds	r3, #4
40000bae:	6819      	ldr	r1, [r3, #0]
40000bb0:	683b      	ldr	r3, [r7, #0]
40000bb2:	3308      	adds	r3, #8
40000bb4:	681a      	ldr	r2, [r3, #0]
40000bb6:	683b      	ldr	r3, [r7, #0]
40000bb8:	330c      	adds	r3, #12
40000bba:	681b      	ldr	r3, [r3, #0]
40000bbc:	f643 50d0 	movw	r0, #15824	; 0x3dd0
40000bc0:	f2c4 0000 	movt	r0, #16384	; 0x4000
40000bc4:	f002 fcb6 	bl	40003534 <tprintf>
40000bc8:	ee15 3f10 	mrc	15, 0, r3, cr5, cr0, {0}
40000bcc:	61bb      	str	r3, [r7, #24]
40000bce:	69b9      	ldr	r1, [r7, #24]
40000bd0:	ee16 3f10 	mrc	15, 0, r3, cr6, cr0, {0}
40000bd4:	617b      	str	r3, [r7, #20]
40000bd6:	697a      	ldr	r2, [r7, #20]
40000bd8:	ee15 3f30 	mrc	15, 0, r3, cr5, cr0, {1}
40000bdc:	613b      	str	r3, [r7, #16]
40000bde:	6938      	ldr	r0, [r7, #16]
40000be0:	ee16 3f50 	mrc	15, 0, r3, cr6, cr0, {2}
40000be4:	60fb      	str	r3, [r7, #12]
40000be6:	68fb      	ldr	r3, [r7, #12]
40000be8:	9300      	str	r3, [sp, #0]
40000bea:	4603      	mov	r3, r0
40000bec:	f643 50f8 	movw	r0, #15864	; 0x3df8
40000bf0:	f2c4 0000 	movt	r0, #16384	; 0x4000
40000bf4:	f002 fc9e 	bl	40003534 <tprintf>
40000bf8:	e7fe      	b.n	40000bf8 <fault_handler+0x14c>
40000bfa:	bf00      	nop

40000bfc <conv_time_to_reg>:
40000bfc:	b490      	push	{r4, r7}
40000bfe:	b082      	sub	sp, #8
40000c00:	af00      	add	r7, sp, #0
40000c02:	e9c7 0100 	strd	r0, r1, [r7]
40000c06:	e9d7 1200 	ldrd	r1, r2, [r7]
40000c0a:	03d4      	lsls	r4, r2, #15
40000c0c:	ea44 4451 	orr.w	r4, r4, r1, lsr #17
40000c10:	03cb      	lsls	r3, r1, #15
40000c12:	4618      	mov	r0, r3
40000c14:	4621      	mov	r1, r4
40000c16:	3708      	adds	r7, #8
40000c18:	46bd      	mov	sp, r7
40000c1a:	bc90      	pop	{r4, r7}
40000c1c:	4770      	bx	lr
40000c1e:	bf00      	nop

40000c20 <conv_reg_to_time>:
40000c20:	b490      	push	{r4, r7}
40000c22:	b082      	sub	sp, #8
40000c24:	af00      	add	r7, sp, #0
40000c26:	e9c7 0100 	strd	r0, r1, [r7]
40000c2a:	e9d7 1200 	ldrd	r1, r2, [r7]
40000c2e:	0bcb      	lsrs	r3, r1, #15
40000c30:	ea43 4342 	orr.w	r3, r3, r2, lsl #17
40000c34:	0bd4      	lsrs	r4, r2, #15
40000c36:	4618      	mov	r0, r3
40000c38:	4621      	mov	r1, r4
40000c3a:	3708      	adds	r7, #8
40000c3c:	46bd      	mov	sp, r7
40000c3e:	bc90      	pop	{r4, r7}
40000c40:	4770      	bx	lr
40000c42:	bf00      	nop

40000c44 <timer_handler>:
40000c44:	b580      	push	{r7, lr}
40000c46:	b082      	sub	sp, #8
40000c48:	af00      	add	r7, sp, #0
40000c4a:	6078      	str	r0, [r7, #4]
40000c4c:	6039      	str	r1, [r7, #0]
40000c4e:	f04f 33ff 	mov.w	r3, #4294967295
40000c52:	f04f 32ff 	mov.w	r2, #4294967295
40000c56:	ec42 3f2e 	mcrr	15, 2, r3, r2, cr14
40000c5a:	f000 fc4f 	bl	400014fc <task_tick>
40000c5e:	3708      	adds	r7, #8
40000c60:	46bd      	mov	sp, r7
40000c62:	bd80      	pop	{r7, pc}

40000c64 <get_tick_count>:
40000c64:	b590      	push	{r4, r7, lr}
40000c66:	b083      	sub	sp, #12
40000c68:	af00      	add	r7, sp, #0
40000c6a:	ec52 1f0e 	mrrc	15, 0, r1, r2, cr14
40000c6e:	6079      	str	r1, [r7, #4]
40000c70:	603a      	str	r2, [r7, #0]
40000c72:	683a      	ldr	r2, [r7, #0]
40000c74:	4611      	mov	r1, r2
40000c76:	f04f 0200 	mov.w	r2, #0
40000c7a:	000c      	movs	r4, r1
40000c7c:	2300      	movs	r3, #0
40000c7e:	687a      	ldr	r2, [r7, #4]
40000c80:	4611      	mov	r1, r2
40000c82:	f04f 0200 	mov.w	r2, #0
40000c86:	ea43 0301 	orr.w	r3, r3, r1
40000c8a:	ea44 0402 	orr.w	r4, r4, r2
40000c8e:	4618      	mov	r0, r3
40000c90:	4621      	mov	r1, r4
40000c92:	f7ff ffc5 	bl	40000c20 <conv_reg_to_time>
40000c96:	4603      	mov	r3, r0
40000c98:	460c      	mov	r4, r1
40000c9a:	4618      	mov	r0, r3
40000c9c:	4621      	mov	r1, r4
40000c9e:	370c      	adds	r7, #12
40000ca0:	46bd      	mov	sp, r7
40000ca2:	bd90      	pop	{r4, r7, pc}

40000ca4 <update_first_timeout>:
40000ca4:	b5f0      	push	{r4, r5, r6, r7, lr}
40000ca6:	b083      	sub	sp, #12
40000ca8:	af00      	add	r7, sp, #0
40000caa:	e9c7 0100 	strd	r0, r1, [r7]
40000cae:	e9d7 0100 	ldrd	r0, r1, [r7]
40000cb2:	f7ff ffa3 	bl	40000bfc <conv_time_to_reg>
40000cb6:	4602      	mov	r2, r0
40000cb8:	460b      	mov	r3, r1
40000cba:	4616      	mov	r6, r2
40000cbc:	e9d7 0100 	ldrd	r0, r1, [r7]
40000cc0:	f7ff ff9c 	bl	40000bfc <conv_time_to_reg>
40000cc4:	4602      	mov	r2, r0
40000cc6:	460b      	mov	r3, r1
40000cc8:	001c      	movs	r4, r3
40000cca:	2500      	movs	r5, #0
40000ccc:	4623      	mov	r3, r4
40000cce:	ec43 6f2e 	mcrr	15, 2, r6, r3, cr14
40000cd2:	370c      	adds	r7, #12
40000cd4:	46bd      	mov	sp, r7
40000cd6:	bdf0      	pop	{r4, r5, r6, r7, pc}

40000cd8 <arch_timer_init>:
40000cd8:	b580      	push	{r7, lr}
40000cda:	b082      	sub	sp, #8
40000cdc:	af00      	add	r7, sp, #0
40000cde:	6078      	str	r0, [r7, #4]
40000ce0:	2300      	movs	r3, #0
40000ce2:	ee0e 3f32 	mcr	15, 0, r3, cr14, cr2, {1}
40000ce6:	f44f 5358 	mov.w	r3, #13824	; 0x3600
40000cea:	f2c0 136e 	movt	r3, #366	; 0x16e
40000cee:	ee0e 3f10 	mcr	15, 0, r3, cr14, cr0, {0}
40000cf2:	f04f 33ff 	mov.w	r3, #4294967295
40000cf6:	f04f 32ff 	mov.w	r2, #4294967295
40000cfa:	ec42 3f2e 	mcrr	15, 2, r3, r2, cr14
40000cfe:	2301      	movs	r3, #1
40000d00:	ee0e 3f32 	mcr	15, 0, r3, cr14, cr2, {1}
40000d04:	687b      	ldr	r3, [r7, #4]
40000d06:	2b00      	cmp	r3, #0
40000d08:	d107      	bne.n	40000d1a <arch_timer_init+0x42>
40000d0a:	2200      	movs	r2, #0
40000d0c:	f640 4145 	movw	r1, #3141	; 0xc45
40000d10:	f2c4 0100 	movt	r1, #16384	; 0x4000
40000d14:	201d      	movs	r0, #29
40000d16:	f001 f851 	bl	40001dbc <__irq_add_handler>
40000d1a:	2101      	movs	r1, #1
40000d1c:	201d      	movs	r0, #29
40000d1e:	f001 f86d 	bl	40001dfc <__irq_set_enable>
40000d22:	3708      	adds	r7, #8
40000d24:	46bd      	mov	sp, r7
40000d26:	bd80      	pop	{r7, pc}

40000d28 <arch_smp_init>:
40000d28:	b480      	push	{r7}
40000d2a:	af00      	add	r7, sp, #0
40000d2c:	46bd      	mov	sp, r7
40000d2e:	f85d 7b04 	ldr.w	r7, [sp], #4
40000d32:	4770      	bx	lr

40000d34 <smp_boot_slave_cpu>:
40000d34:	b480      	push	{r7}
40000d36:	af00      	add	r7, sp, #0
40000d38:	f3bf 8f4f 	dsb	sy
40000d3c:	f645 53a4 	movw	r3, #23972	; 0x5da4
40000d40:	f2c0 13c2 	movt	r3, #450	; 0x1c2
40000d44:	f240 0200 	movw	r2, #0
40000d48:	f2c4 0200 	movt	r2, #16384	; 0x4000
40000d4c:	601a      	str	r2, [r3, #0]
40000d4e:	f645 5384 	movw	r3, #23940	; 0x5d84
40000d52:	f2c0 13c2 	movt	r3, #450	; 0x1c2
40000d56:	f645 5284 	movw	r2, #23940	; 0x5d84
40000d5a:	f2c0 12c2 	movt	r2, #450	; 0x1c2
40000d5e:	6812      	ldr	r2, [r2, #0]
40000d60:	f022 0202 	bic.w	r2, r2, #2
40000d64:	601a      	str	r2, [r3, #0]
40000d66:	f44f 43b9 	mov.w	r3, #23680	; 0x5c80
40000d6a:	f2c0 13c2 	movt	r3, #450	; 0x1c2
40000d6e:	2203      	movs	r2, #3
40000d70:	601a      	str	r2, [r3, #0]
40000d72:	f3bf 8f4f 	dsb	sy
40000d76:	46bd      	mov	sp, r7
40000d78:	f85d 7b04 	ldr.w	r7, [sp], #4
40000d7c:	4770      	bx	lr
40000d7e:	bf00      	nop

40000d80 <wait_loop>:
40000d80:	b480      	push	{r7}
40000d82:	b083      	sub	sp, #12
40000d84:	af00      	add	r7, sp, #0
40000d86:	2300      	movs	r3, #0
40000d88:	607b      	str	r3, [r7, #4]
40000d8a:	e00c      	b.n	40000da6 <wait_loop+0x26>
40000d8c:	f645 53a4 	movw	r3, #23972	; 0x5da4
40000d90:	f2c0 13c2 	movt	r3, #450	; 0x1c2
40000d94:	681a      	ldr	r2, [r3, #0]
40000d96:	f244 13d4 	movw	r3, #16852	; 0x41d4
40000d9a:	f2c4 0300 	movt	r3, #16384	; 0x4000
40000d9e:	601a      	str	r2, [r3, #0]
40000da0:	687b      	ldr	r3, [r7, #4]
40000da2:	3301      	adds	r3, #1
40000da4:	607b      	str	r3, [r7, #4]
40000da6:	687a      	ldr	r2, [r7, #4]
40000da8:	f248 639f 	movw	r3, #34463	; 0x869f
40000dac:	f2c0 0301 	movt	r3, #1
40000db0:	429a      	cmp	r2, r3
40000db2:	ddeb      	ble.n	40000d8c <wait_loop+0xc>
40000db4:	370c      	adds	r7, #12
40000db6:	46bd      	mov	sp, r7
40000db8:	f85d 7b04 	ldr.w	r7, [sp], #4
40000dbc:	4770      	bx	lr
40000dbe:	bf00      	nop

40000dc0 <boot_each_core>:
40000dc0:	b580      	push	{r7, lr}
40000dc2:	b084      	sub	sp, #16
40000dc4:	af00      	add	r7, sp, #0
40000dc6:	6078      	str	r0, [r7, #4]
40000dc8:	687b      	ldr	r3, [r7, #4]
40000dca:	f44f 7290 	mov.w	r2, #288	; 0x120
40000dce:	fb02 f203 	mul.w	r2, r2, r3
40000dd2:	f245 23ac 	movw	r3, #21164	; 0x52ac
40000dd6:	f2c4 0300 	movt	r3, #16384	; 0x4000
40000dda:	4413      	add	r3, r2
40000ddc:	4618      	mov	r0, r3
40000dde:	f000 fbe3 	bl	400015a8 <schedule>
40000de2:	f244 13d0 	movw	r3, #16848	; 0x41d0
40000de6:	f2c4 0300 	movt	r3, #16384	; 0x4000
40000dea:	687a      	ldr	r2, [r7, #4]
40000dec:	4413      	add	r3, r2
40000dee:	2201      	movs	r2, #1
40000df0:	701a      	strb	r2, [r3, #0]
40000df2:	f3bf 8f4f 	dsb	sy
40000df6:	2300      	movs	r3, #0
40000df8:	60fb      	str	r3, [r7, #12]
40000dfa:	e00d      	b.n	40000e18 <boot_each_core+0x58>
40000dfc:	f244 13d0 	movw	r3, #16848	; 0x41d0
40000e00:	f2c4 0300 	movt	r3, #16384	; 0x4000
40000e04:	68fa      	ldr	r2, [r7, #12]
40000e06:	4413      	add	r3, r2
40000e08:	781b      	ldrb	r3, [r3, #0]
40000e0a:	b2db      	uxtb	r3, r3
40000e0c:	2b00      	cmp	r3, #0
40000e0e:	d100      	bne.n	40000e12 <boot_each_core+0x52>
40000e10:	e005      	b.n	40000e1e <boot_each_core+0x5e>
40000e12:	68fb      	ldr	r3, [r7, #12]
40000e14:	3301      	adds	r3, #1
40000e16:	60fb      	str	r3, [r7, #12]
40000e18:	68fb      	ldr	r3, [r7, #12]
40000e1a:	2b01      	cmp	r3, #1
40000e1c:	ddee      	ble.n	40000dfc <boot_each_core+0x3c>
40000e1e:	68fb      	ldr	r3, [r7, #12]
40000e20:	2b02      	cmp	r3, #2
40000e22:	d103      	bne.n	40000e2c <boot_each_core+0x6c>
40000e24:	bf00      	nop
40000e26:	f002 fc9b 	bl	40003760 <_dispatch>
40000e2a:	e000      	b.n	40000e2e <boot_each_core+0x6e>
40000e2c:	e7e3      	b.n	40000df6 <boot_each_core+0x36>
40000e2e:	e7fe      	b.n	40000e2e <boot_each_core+0x6e>

40000e30 <startup_master>:
40000e30:	b580      	push	{r7, lr}
40000e32:	b084      	sub	sp, #16
40000e34:	af00      	add	r7, sp, #0
40000e36:	6078      	str	r0, [r7, #4]
40000e38:	f7ff fc10 	bl	4000065c <arch_register_st_memory>
40000e3c:	6878      	ldr	r0, [r7, #4]
40000e3e:	f7ff faf3 	bl	40000428 <arch_system_preinit>
40000e42:	f643 6024 	movw	r0, #15908	; 0x3e24
40000e46:	f2c4 0000 	movt	r0, #16384	; 0x4000
40000e4a:	f002 fb73 	bl	40003534 <tprintf>
40000e4e:	f000 f90f 	bl	40001070 <task_init>
40000e52:	f001 fd03 	bl	4000285c <mutex_init>
40000e56:	f001 ff71 	bl	40002d3c <timer_init>
40000e5a:	6878      	ldr	r0, [r7, #4]
40000e5c:	f7ff ff3c 	bl	40000cd8 <arch_timer_init>
40000e60:	6878      	ldr	r0, [r7, #4]
40000e62:	f7ff fc13 	bl	4000068c <arch_system_postinit>
40000e66:	f001 f9b7 	bl	400021d8 <sys_malloc_init>
40000e6a:	f001 f94d 	bl	40002108 <st_malloc_normalize>
40000e6e:	f7ff fc05 	bl	4000067c <arch_register_normal_memory>
40000e72:	f000 fc3f 	bl	400016f4 <task_init_task_create>
40000e76:	2300      	movs	r3, #0
40000e78:	60fb      	str	r3, [r7, #12]
40000e7a:	e00a      	b.n	40000e92 <startup_master+0x62>
40000e7c:	f244 13d0 	movw	r3, #16848	; 0x41d0
40000e80:	f2c4 0300 	movt	r3, #16384	; 0x4000
40000e84:	68fa      	ldr	r2, [r7, #12]
40000e86:	4413      	add	r3, r2
40000e88:	2200      	movs	r2, #0
40000e8a:	701a      	strb	r2, [r3, #0]
40000e8c:	68fb      	ldr	r3, [r7, #12]
40000e8e:	3301      	adds	r3, #1
40000e90:	60fb      	str	r3, [r7, #12]
40000e92:	68fb      	ldr	r3, [r7, #12]
40000e94:	2b01      	cmp	r3, #1
40000e96:	ddf1      	ble.n	40000e7c <startup_master+0x4c>
40000e98:	f7ff ff4c 	bl	40000d34 <smp_boot_slave_cpu>
40000e9c:	6878      	ldr	r0, [r7, #4]
40000e9e:	f7ff ff8f 	bl	40000dc0 <boot_each_core>
40000ea2:	3710      	adds	r7, #16
40000ea4:	46bd      	mov	sp, r7
40000ea6:	bd80      	pop	{r7, pc}

40000ea8 <startup_slave>:
40000ea8:	b580      	push	{r7, lr}
40000eaa:	b082      	sub	sp, #8
40000eac:	af00      	add	r7, sp, #0
40000eae:	6078      	str	r0, [r7, #4]
40000eb0:	6878      	ldr	r0, [r7, #4]
40000eb2:	f7ff fab9 	bl	40000428 <arch_system_preinit>
40000eb6:	6878      	ldr	r0, [r7, #4]
40000eb8:	f7ff ff0e 	bl	40000cd8 <arch_timer_init>
40000ebc:	6878      	ldr	r0, [r7, #4]
40000ebe:	f7ff fbe5 	bl	4000068c <arch_system_postinit>
40000ec2:	6878      	ldr	r0, [r7, #4]
40000ec4:	f7ff ff7c 	bl	40000dc0 <boot_each_core>
40000ec8:	3708      	adds	r7, #8
40000eca:	46bd      	mov	sp, r7
40000ecc:	bd80      	pop	{r7, pc}
40000ece:	bf00      	nop

40000ed0 <startup>:
40000ed0:	b580      	push	{r7, lr}
40000ed2:	b082      	sub	sp, #8
40000ed4:	af00      	add	r7, sp, #0
40000ed6:	ee10 3fb0 	mrc	15, 0, r3, cr0, cr0, {5}
40000eda:	607b      	str	r3, [r7, #4]
40000edc:	687b      	ldr	r3, [r7, #4]
40000ede:	b2db      	uxtb	r3, r3
40000ee0:	603b      	str	r3, [r7, #0]
40000ee2:	683b      	ldr	r3, [r7, #0]
40000ee4:	2b00      	cmp	r3, #0
40000ee6:	d103      	bne.n	40000ef0 <startup+0x20>
40000ee8:	6838      	ldr	r0, [r7, #0]
40000eea:	f7ff ffa1 	bl	40000e30 <startup_master>
40000eee:	e002      	b.n	40000ef6 <startup+0x26>
40000ef0:	6838      	ldr	r0, [r7, #0]
40000ef2:	f7ff ffd9 	bl	40000ea8 <startup_slave>
40000ef6:	3708      	adds	r7, #8
40000ef8:	46bd      	mov	sp, r7
40000efa:	bd80      	pop	{r7, pc}

40000efc <link_clear>:
40000efc:	b480      	push	{r7}
40000efe:	b083      	sub	sp, #12
40000f00:	af00      	add	r7, sp, #0
40000f02:	6078      	str	r0, [r7, #4]
40000f04:	687b      	ldr	r3, [r7, #4]
40000f06:	687a      	ldr	r2, [r7, #4]
40000f08:	605a      	str	r2, [r3, #4]
40000f0a:	687b      	ldr	r3, [r7, #4]
40000f0c:	685a      	ldr	r2, [r3, #4]
40000f0e:	687b      	ldr	r3, [r7, #4]
40000f10:	601a      	str	r2, [r3, #0]
40000f12:	370c      	adds	r7, #12
40000f14:	46bd      	mov	sp, r7
40000f16:	f85d 7b04 	ldr.w	r7, [sp], #4
40000f1a:	4770      	bx	lr

40000f1c <link_remove>:
40000f1c:	b480      	push	{r7}
40000f1e:	b085      	sub	sp, #20
40000f20:	af00      	add	r7, sp, #0
40000f22:	6078      	str	r0, [r7, #4]
40000f24:	687b      	ldr	r3, [r7, #4]
40000f26:	685b      	ldr	r3, [r3, #4]
40000f28:	60fb      	str	r3, [r7, #12]
40000f2a:	687b      	ldr	r3, [r7, #4]
40000f2c:	681b      	ldr	r3, [r3, #0]
40000f2e:	60bb      	str	r3, [r7, #8]
40000f30:	68fb      	ldr	r3, [r7, #12]
40000f32:	68ba      	ldr	r2, [r7, #8]
40000f34:	601a      	str	r2, [r3, #0]
40000f36:	68bb      	ldr	r3, [r7, #8]
40000f38:	68fa      	ldr	r2, [r7, #12]
40000f3a:	605a      	str	r2, [r3, #4]
40000f3c:	3714      	adds	r7, #20
40000f3e:	46bd      	mov	sp, r7
40000f40:	f85d 7b04 	ldr.w	r7, [sp], #4
40000f44:	4770      	bx	lr
40000f46:	bf00      	nop

40000f48 <link_add_last>:
40000f48:	b480      	push	{r7}
40000f4a:	b085      	sub	sp, #20
40000f4c:	af00      	add	r7, sp, #0
40000f4e:	6078      	str	r0, [r7, #4]
40000f50:	6039      	str	r1, [r7, #0]
40000f52:	687b      	ldr	r3, [r7, #4]
40000f54:	685b      	ldr	r3, [r3, #4]
40000f56:	60fb      	str	r3, [r7, #12]
40000f58:	683b      	ldr	r3, [r7, #0]
40000f5a:	687a      	ldr	r2, [r7, #4]
40000f5c:	601a      	str	r2, [r3, #0]
40000f5e:	683b      	ldr	r3, [r7, #0]
40000f60:	68fa      	ldr	r2, [r7, #12]
40000f62:	605a      	str	r2, [r3, #4]
40000f64:	687b      	ldr	r3, [r7, #4]
40000f66:	683a      	ldr	r2, [r7, #0]
40000f68:	605a      	str	r2, [r3, #4]
40000f6a:	68fb      	ldr	r3, [r7, #12]
40000f6c:	683a      	ldr	r2, [r7, #0]
40000f6e:	601a      	str	r2, [r3, #0]
40000f70:	3714      	adds	r7, #20
40000f72:	46bd      	mov	sp, r7
40000f74:	f85d 7b04 	ldr.w	r7, [sp], #4
40000f78:	4770      	bx	lr
40000f7a:	bf00      	nop

40000f7c <link_is_empty>:
40000f7c:	b480      	push	{r7}
40000f7e:	b085      	sub	sp, #20
40000f80:	af00      	add	r7, sp, #0
40000f82:	6078      	str	r0, [r7, #4]
40000f84:	2300      	movs	r3, #0
40000f86:	73fb      	strb	r3, [r7, #15]
40000f88:	687b      	ldr	r3, [r7, #4]
40000f8a:	681a      	ldr	r2, [r3, #0]
40000f8c:	687b      	ldr	r3, [r7, #4]
40000f8e:	429a      	cmp	r2, r3
40000f90:	d101      	bne.n	40000f96 <link_is_empty+0x1a>
40000f92:	2301      	movs	r3, #1
40000f94:	73fb      	strb	r3, [r7, #15]
40000f96:	7bfb      	ldrb	r3, [r7, #15]
40000f98:	4618      	mov	r0, r3
40000f9a:	3714      	adds	r7, #20
40000f9c:	46bd      	mov	sp, r7
40000f9e:	f85d 7b04 	ldr.w	r7, [sp], #4
40000fa2:	4770      	bx	lr

40000fa4 <task_set_wait>:
40000fa4:	b480      	push	{r7}
40000fa6:	b085      	sub	sp, #20
40000fa8:	af00      	add	r7, sp, #0
40000faa:	60f8      	str	r0, [r7, #12]
40000fac:	60b9      	str	r1, [r7, #8]
40000fae:	607a      	str	r2, [r7, #4]
40000fb0:	68fb      	ldr	r3, [r7, #12]
40000fb2:	68ba      	ldr	r2, [r7, #8]
40000fb4:	669a      	str	r2, [r3, #104]	; 0x68
40000fb6:	68fb      	ldr	r3, [r7, #12]
40000fb8:	687a      	ldr	r2, [r7, #4]
40000fba:	66da      	str	r2, [r3, #108]	; 0x6c
40000fbc:	68fb      	ldr	r3, [r7, #12]
40000fbe:	2202      	movs	r2, #2
40000fc0:	655a      	str	r2, [r3, #84]	; 0x54
40000fc2:	3714      	adds	r7, #20
40000fc4:	46bd      	mov	sp, r7
40000fc6:	f85d 7b04 	ldr.w	r7, [sp], #4
40000fca:	4770      	bx	lr

40000fcc <alloc_task_id>:
40000fcc:	b480      	push	{r7}
40000fce:	b083      	sub	sp, #12
40000fd0:	af00      	add	r7, sp, #0
40000fd2:	f3ef 8300 	mrs	r3, CPSR
40000fd6:	b672      	cpsid	i
40000fd8:	603b      	str	r3, [r7, #0]
40000fda:	f04f 33ff 	mov.w	r3, #4294967295
40000fde:	607b      	str	r3, [r7, #4]
40000fe0:	f244 2358 	movw	r3, #16984	; 0x4258
40000fe4:	f2c4 0300 	movt	r3, #16384	; 0x4000
40000fe8:	681a      	ldr	r2, [r3, #0]
40000fea:	f244 2354 	movw	r3, #16980	; 0x4254
40000fee:	f2c4 0300 	movt	r3, #16384	; 0x4000
40000ff2:	681b      	ldr	r3, [r3, #0]
40000ff4:	429a      	cmp	r2, r3
40000ff6:	da10      	bge.n	4000101a <alloc_task_id+0x4e>
40000ff8:	f244 2358 	movw	r3, #16984	; 0x4258
40000ffc:	f2c4 0300 	movt	r3, #16384	; 0x4000
40001000:	681b      	ldr	r3, [r3, #0]
40001002:	607b      	str	r3, [r7, #4]
40001004:	f244 2358 	movw	r3, #16984	; 0x4258
40001008:	f2c4 0300 	movt	r3, #16384	; 0x4000
4000100c:	681b      	ldr	r3, [r3, #0]
4000100e:	1c5a      	adds	r2, r3, #1
40001010:	f244 2358 	movw	r3, #16984	; 0x4258
40001014:	f2c4 0300 	movt	r3, #16384	; 0x4000
40001018:	601a      	str	r2, [r3, #0]
4000101a:	683b      	ldr	r3, [r7, #0]
4000101c:	f003 0380 	and.w	r3, r3, #128	; 0x80
40001020:	2b00      	cmp	r3, #0
40001022:	d100      	bne.n	40001026 <alloc_task_id+0x5a>
40001024:	b662      	cpsie	i
40001026:	687b      	ldr	r3, [r7, #4]
40001028:	4618      	mov	r0, r3
4000102a:	370c      	adds	r7, #12
4000102c:	46bd      	mov	sp, r7
4000102e:	f85d 7b04 	ldr.w	r7, [sp], #4
40001032:	4770      	bx	lr

40001034 <taskid2object>:
40001034:	b480      	push	{r7}
40001036:	b083      	sub	sp, #12
40001038:	af00      	add	r7, sp, #0
4000103a:	6078      	str	r0, [r7, #4]
4000103c:	f244 2350 	movw	r3, #16976	; 0x4250
40001040:	f2c4 0300 	movt	r3, #16384	; 0x4000
40001044:	681a      	ldr	r2, [r3, #0]
40001046:	687b      	ldr	r3, [r7, #4]
40001048:	2178      	movs	r1, #120	; 0x78
4000104a:	fb01 f303 	mul.w	r3, r1, r3
4000104e:	4413      	add	r3, r2
40001050:	4618      	mov	r0, r3
40001052:	370c      	adds	r7, #12
40001054:	46bd      	mov	sp, r7
40001056:	f85d 7b04 	ldr.w	r7, [sp], #4
4000105a:	4770      	bx	lr

4000105c <free_task_struct>:
4000105c:	b480      	push	{r7}
4000105e:	b083      	sub	sp, #12
40001060:	af00      	add	r7, sp, #0
40001062:	6078      	str	r0, [r7, #4]
40001064:	370c      	adds	r7, #12
40001066:	46bd      	mov	sp, r7
40001068:	f85d 7b04 	ldr.w	r7, [sp], #4
4000106c:	4770      	bx	lr
4000106e:	bf00      	nop

40001070 <task_init>:
40001070:	b580      	push	{r7, lr}
40001072:	af00      	add	r7, sp, #0
40001074:	2108      	movs	r1, #8
40001076:	f642 60e0 	movw	r0, #12000	; 0x2ee0
4000107a:	f001 f815 	bl	400020a8 <st_malloc_align>
4000107e:	4602      	mov	r2, r0
40001080:	f244 2350 	movw	r3, #16976	; 0x4250
40001084:	f2c4 0300 	movt	r3, #16384	; 0x4000
40001088:	601a      	str	r2, [r3, #0]
4000108a:	f244 2354 	movw	r3, #16980	; 0x4254
4000108e:	f2c4 0300 	movt	r3, #16384	; 0x4000
40001092:	2264      	movs	r2, #100	; 0x64
40001094:	601a      	str	r2, [r3, #0]
40001096:	f244 2358 	movw	r3, #16984	; 0x4258
4000109a:	f2c4 0300 	movt	r3, #16384	; 0x4000
4000109e:	2200      	movs	r2, #0
400010a0:	601a      	str	r2, [r3, #0]
400010a2:	f000 f825 	bl	400010f0 <task_sub_init>
400010a6:	bd80      	pop	{r7, pc}

400010a8 <cpu_spininit>:
400010a8:	b580      	push	{r7, lr}
400010aa:	b082      	sub	sp, #8
400010ac:	af00      	add	r7, sp, #0
400010ae:	6078      	str	r0, [r7, #4]
400010b0:	687b      	ldr	r3, [r7, #4]
400010b2:	3308      	adds	r3, #8
400010b4:	4618      	mov	r0, r3
400010b6:	f002 fd25 	bl	40003b04 <spin_init>
400010ba:	3708      	adds	r7, #8
400010bc:	46bd      	mov	sp, r7
400010be:	bd80      	pop	{r7, pc}

400010c0 <cpu_spinlock>:
400010c0:	b580      	push	{r7, lr}
400010c2:	b082      	sub	sp, #8
400010c4:	af00      	add	r7, sp, #0
400010c6:	6078      	str	r0, [r7, #4]
400010c8:	687b      	ldr	r3, [r7, #4]
400010ca:	3308      	adds	r3, #8
400010cc:	4618      	mov	r0, r3
400010ce:	f002 fd1f 	bl	40003b10 <spin_lock>
400010d2:	3708      	adds	r7, #8
400010d4:	46bd      	mov	sp, r7
400010d6:	bd80      	pop	{r7, pc}

400010d8 <cpu_spinunlock>:
400010d8:	b580      	push	{r7, lr}
400010da:	b082      	sub	sp, #8
400010dc:	af00      	add	r7, sp, #0
400010de:	6078      	str	r0, [r7, #4]
400010e0:	687b      	ldr	r3, [r7, #4]
400010e2:	3308      	adds	r3, #8
400010e4:	4618      	mov	r0, r3
400010e6:	f002 fd21 	bl	40003b2c <spin_unlock>
400010ea:	3708      	adds	r7, #8
400010ec:	46bd      	mov	sp, r7
400010ee:	bd80      	pop	{r7, pc}

400010f0 <task_sub_init>:
400010f0:	b580      	push	{r7, lr}
400010f2:	b082      	sub	sp, #8
400010f4:	af00      	add	r7, sp, #0
400010f6:	2300      	movs	r3, #0
400010f8:	607b      	str	r3, [r7, #4]
400010fa:	e06c      	b.n	400011d6 <task_sub_init+0xe6>
400010fc:	687b      	ldr	r3, [r7, #4]
400010fe:	f44f 7290 	mov.w	r2, #288	; 0x120
40001102:	fb02 f203 	mul.w	r2, r2, r3
40001106:	f245 23ac 	movw	r3, #21164	; 0x52ac
4000110a:	f2c4 0300 	movt	r3, #16384	; 0x4000
4000110e:	4413      	add	r3, r2
40001110:	4618      	mov	r0, r3
40001112:	f7ff ffc9 	bl	400010a8 <cpu_spininit>
40001116:	f245 23ac 	movw	r3, #21164	; 0x52ac
4000111a:	f2c4 0300 	movt	r3, #16384	; 0x4000
4000111e:	687a      	ldr	r2, [r7, #4]
40001120:	f44f 7190 	mov.w	r1, #288	; 0x120
40001124:	fb01 f202 	mul.w	r2, r1, r2
40001128:	4413      	add	r3, r2
4000112a:	3310      	adds	r3, #16
4000112c:	2200      	movs	r2, #0
4000112e:	609a      	str	r2, [r3, #8]
40001130:	2300      	movs	r3, #0
40001132:	603b      	str	r3, [r7, #0]
40001134:	e013      	b.n	4000115e <task_sub_init+0x6e>
40001136:	687b      	ldr	r3, [r7, #4]
40001138:	2224      	movs	r2, #36	; 0x24
4000113a:	fb02 f203 	mul.w	r2, r2, r3
4000113e:	683b      	ldr	r3, [r7, #0]
40001140:	4413      	add	r3, r2
40001142:	3303      	adds	r3, #3
40001144:	00da      	lsls	r2, r3, #3
40001146:	f245 23ac 	movw	r3, #21164	; 0x52ac
4000114a:	f2c4 0300 	movt	r3, #16384	; 0x4000
4000114e:	4413      	add	r3, r2
40001150:	3304      	adds	r3, #4
40001152:	4618      	mov	r0, r3
40001154:	f7ff fed2 	bl	40000efc <link_clear>
40001158:	683b      	ldr	r3, [r7, #0]
4000115a:	3301      	adds	r3, #1
4000115c:	603b      	str	r3, [r7, #0]
4000115e:	683b      	ldr	r3, [r7, #0]
40001160:	2b1f      	cmp	r3, #31
40001162:	dde8      	ble.n	40001136 <task_sub_init+0x46>
40001164:	687b      	ldr	r3, [r7, #4]
40001166:	f44f 7290 	mov.w	r2, #288	; 0x120
4000116a:	fb02 f303 	mul.w	r3, r2, r3
4000116e:	f103 0208 	add.w	r2, r3, #8
40001172:	f245 23ac 	movw	r3, #21164	; 0x52ac
40001176:	f2c4 0300 	movt	r3, #16384	; 0x4000
4000117a:	4413      	add	r3, r2
4000117c:	3304      	adds	r3, #4
4000117e:	4618      	mov	r0, r3
40001180:	f7ff febc 	bl	40000efc <link_clear>
40001184:	f245 23ac 	movw	r3, #21164	; 0x52ac
40001188:	f2c4 0300 	movt	r3, #16384	; 0x4000
4000118c:	687a      	ldr	r2, [r7, #4]
4000118e:	f44f 7190 	mov.w	r1, #288	; 0x120
40001192:	fb01 f202 	mul.w	r2, r1, r2
40001196:	4413      	add	r3, r2
40001198:	2200      	movs	r2, #0
4000119a:	601a      	str	r2, [r3, #0]
4000119c:	f245 23ac 	movw	r3, #21164	; 0x52ac
400011a0:	f2c4 0300 	movt	r3, #16384	; 0x4000
400011a4:	687a      	ldr	r2, [r7, #4]
400011a6:	f44f 7190 	mov.w	r1, #288	; 0x120
400011aa:	fb01 f202 	mul.w	r2, r1, r2
400011ae:	4413      	add	r3, r2
400011b0:	2200      	movs	r2, #0
400011b2:	605a      	str	r2, [r3, #4]
400011b4:	687a      	ldr	r2, [r7, #4]
400011b6:	f245 23ac 	movw	r3, #21164	; 0x52ac
400011ba:	f2c4 0300 	movt	r3, #16384	; 0x4000
400011be:	6879      	ldr	r1, [r7, #4]
400011c0:	f44f 7090 	mov.w	r0, #288	; 0x120
400011c4:	fb00 f101 	mul.w	r1, r0, r1
400011c8:	440b      	add	r3, r1
400011ca:	f503 738c 	add.w	r3, r3, #280	; 0x118
400011ce:	605a      	str	r2, [r3, #4]
400011d0:	687b      	ldr	r3, [r7, #4]
400011d2:	3301      	adds	r3, #1
400011d4:	607b      	str	r3, [r7, #4]
400011d6:	687b      	ldr	r3, [r7, #4]
400011d8:	2b01      	cmp	r3, #1
400011da:	dd8f      	ble.n	400010fc <task_sub_init+0xc>
400011dc:	3708      	adds	r7, #8
400011de:	46bd      	mov	sp, r7
400011e0:	bd80      	pop	{r7, pc}
400011e2:	bf00      	nop

400011e4 <can_dispatch>:
400011e4:	b580      	push	{r7, lr}
400011e6:	af00      	add	r7, sp, #0
400011e8:	f7ff fa5a 	bl	400006a0 <arch_can_dispatch>
400011ec:	4603      	mov	r3, r0
400011ee:	4618      	mov	r0, r3
400011f0:	bd80      	pop	{r7, pc}
400011f2:	bf00      	nop

400011f4 <lowest_bit>:
400011f4:	b480      	push	{r7}
400011f6:	b085      	sub	sp, #20
400011f8:	af00      	add	r7, sp, #0
400011fa:	6078      	str	r0, [r7, #4]
400011fc:	2300      	movs	r3, #0
400011fe:	60fb      	str	r3, [r7, #12]
40001200:	687b      	ldr	r3, [r7, #4]
40001202:	b29b      	uxth	r3, r3
40001204:	2b00      	cmp	r3, #0
40001206:	d104      	bne.n	40001212 <lowest_bit+0x1e>
40001208:	2310      	movs	r3, #16
4000120a:	60fb      	str	r3, [r7, #12]
4000120c:	687b      	ldr	r3, [r7, #4]
4000120e:	0c1b      	lsrs	r3, r3, #16
40001210:	607b      	str	r3, [r7, #4]
40001212:	687b      	ldr	r3, [r7, #4]
40001214:	b2db      	uxtb	r3, r3
40001216:	2b00      	cmp	r3, #0
40001218:	d105      	bne.n	40001226 <lowest_bit+0x32>
4000121a:	68fb      	ldr	r3, [r7, #12]
4000121c:	3308      	adds	r3, #8
4000121e:	60fb      	str	r3, [r7, #12]
40001220:	687b      	ldr	r3, [r7, #4]
40001222:	0a1b      	lsrs	r3, r3, #8
40001224:	607b      	str	r3, [r7, #4]
40001226:	687b      	ldr	r3, [r7, #4]
40001228:	f003 030f 	and.w	r3, r3, #15
4000122c:	2b00      	cmp	r3, #0
4000122e:	d105      	bne.n	4000123c <lowest_bit+0x48>
40001230:	68fb      	ldr	r3, [r7, #12]
40001232:	3304      	adds	r3, #4
40001234:	60fb      	str	r3, [r7, #12]
40001236:	687b      	ldr	r3, [r7, #4]
40001238:	091b      	lsrs	r3, r3, #4
4000123a:	607b      	str	r3, [r7, #4]
4000123c:	687b      	ldr	r3, [r7, #4]
4000123e:	f003 0303 	and.w	r3, r3, #3
40001242:	2b00      	cmp	r3, #0
40001244:	d105      	bne.n	40001252 <lowest_bit+0x5e>
40001246:	68fb      	ldr	r3, [r7, #12]
40001248:	3302      	adds	r3, #2
4000124a:	60fb      	str	r3, [r7, #12]
4000124c:	687b      	ldr	r3, [r7, #4]
4000124e:	089b      	lsrs	r3, r3, #2
40001250:	607b      	str	r3, [r7, #4]
40001252:	687b      	ldr	r3, [r7, #4]
40001254:	f003 0301 	and.w	r3, r3, #1
40001258:	2b00      	cmp	r3, #0
4000125a:	d102      	bne.n	40001262 <lowest_bit+0x6e>
4000125c:	68fb      	ldr	r3, [r7, #12]
4000125e:	3301      	adds	r3, #1
40001260:	60fb      	str	r3, [r7, #12]
40001262:	68fb      	ldr	r3, [r7, #12]
40001264:	4618      	mov	r0, r3
40001266:	3714      	adds	r7, #20
40001268:	46bd      	mov	sp, r7
4000126a:	f85d 7b04 	ldr.w	r7, [sp], #4
4000126e:	4770      	bx	lr

40001270 <task_remove_queue>:
40001270:	b580      	push	{r7, lr}
40001272:	b084      	sub	sp, #16
40001274:	af00      	add	r7, sp, #0
40001276:	6078      	str	r0, [r7, #4]
40001278:	687b      	ldr	r3, [r7, #4]
4000127a:	6f5b      	ldr	r3, [r3, #116]	; 0x74
4000127c:	3314      	adds	r3, #20
4000127e:	60fb      	str	r3, [r7, #12]
40001280:	687b      	ldr	r3, [r7, #4]
40001282:	6c9b      	ldr	r3, [r3, #72]	; 0x48
40001284:	60bb      	str	r3, [r7, #8]
40001286:	687b      	ldr	r3, [r7, #4]
40001288:	4618      	mov	r0, r3
4000128a:	f7ff fe47 	bl	40000f1c <link_remove>
4000128e:	68bb      	ldr	r3, [r7, #8]
40001290:	3301      	adds	r3, #1
40001292:	00db      	lsls	r3, r3, #3
40001294:	68fa      	ldr	r2, [r7, #12]
40001296:	4413      	add	r3, r2
40001298:	4618      	mov	r0, r3
4000129a:	f7ff fe6f 	bl	40000f7c <link_is_empty>
4000129e:	4603      	mov	r3, r0
400012a0:	2b00      	cmp	r3, #0
400012a2:	d009      	beq.n	400012b8 <task_remove_queue+0x48>
400012a4:	68fb      	ldr	r3, [r7, #12]
400012a6:	685a      	ldr	r2, [r3, #4]
400012a8:	68bb      	ldr	r3, [r7, #8]
400012aa:	2101      	movs	r1, #1
400012ac:	fa01 f303 	lsl.w	r3, r1, r3
400012b0:	43db      	mvns	r3, r3
400012b2:	401a      	ands	r2, r3
400012b4:	68fb      	ldr	r3, [r7, #12]
400012b6:	605a      	str	r2, [r3, #4]
400012b8:	3710      	adds	r7, #16
400012ba:	46bd      	mov	sp, r7
400012bc:	bd80      	pop	{r7, pc}
400012be:	bf00      	nop

400012c0 <task_add_queue>:
400012c0:	b580      	push	{r7, lr}
400012c2:	b086      	sub	sp, #24
400012c4:	af00      	add	r7, sp, #0
400012c6:	6078      	str	r0, [r7, #4]
400012c8:	687b      	ldr	r3, [r7, #4]
400012ca:	6f5b      	ldr	r3, [r3, #116]	; 0x74
400012cc:	3314      	adds	r3, #20
400012ce:	617b      	str	r3, [r7, #20]
400012d0:	687b      	ldr	r3, [r7, #4]
400012d2:	6c9b      	ldr	r3, [r3, #72]	; 0x48
400012d4:	613b      	str	r3, [r7, #16]
400012d6:	693b      	ldr	r3, [r7, #16]
400012d8:	2b1f      	cmp	r3, #31
400012da:	d813      	bhi.n	40001304 <task_add_queue+0x44>
400012dc:	693b      	ldr	r3, [r7, #16]
400012de:	3301      	adds	r3, #1
400012e0:	00db      	lsls	r3, r3, #3
400012e2:	697a      	ldr	r2, [r7, #20]
400012e4:	4413      	add	r3, r2
400012e6:	60fb      	str	r3, [r7, #12]
400012e8:	687b      	ldr	r3, [r7, #4]
400012ea:	4619      	mov	r1, r3
400012ec:	68f8      	ldr	r0, [r7, #12]
400012ee:	f7ff fe2b 	bl	40000f48 <link_add_last>
400012f2:	697b      	ldr	r3, [r7, #20]
400012f4:	685a      	ldr	r2, [r3, #4]
400012f6:	693b      	ldr	r3, [r7, #16]
400012f8:	2101      	movs	r1, #1
400012fa:	fa01 f303 	lsl.w	r3, r1, r3
400012fe:	431a      	orrs	r2, r3
40001300:	697b      	ldr	r3, [r7, #20]
40001302:	605a      	str	r2, [r3, #4]
40001304:	3718      	adds	r7, #24
40001306:	46bd      	mov	sp, r7
40001308:	bd80      	pop	{r7, pc}
4000130a:	bf00      	nop

4000130c <_kernel_timer_update>:
4000130c:	b590      	push	{r4, r7, lr}
4000130e:	b089      	sub	sp, #36	; 0x24
40001310:	af00      	add	r7, sp, #0
40001312:	6078      	str	r0, [r7, #4]
40001314:	f001 fe4e 	bl	40002fb4 <_timer_get_next_timeout>
40001318:	4603      	mov	r3, r0
4000131a:	ea4f 74e3 	mov.w	r4, r3, asr #31
4000131e:	e9c7 3406 	strd	r3, r4, [r7, #24]
40001322:	687b      	ldr	r3, [r7, #4]
40001324:	681b      	ldr	r3, [r3, #0]
40001326:	617b      	str	r3, [r7, #20]
40001328:	697a      	ldr	r2, [r7, #20]
4000132a:	687b      	ldr	r3, [r7, #4]
4000132c:	429a      	cmp	r2, r3
4000132e:	d016      	beq.n	4000135e <_kernel_timer_update+0x52>
40001330:	697b      	ldr	r3, [r7, #20]
40001332:	613b      	str	r3, [r7, #16]
40001334:	693b      	ldr	r3, [r7, #16]
40001336:	3b58      	subs	r3, #88	; 0x58
40001338:	60fb      	str	r3, [r7, #12]
4000133a:	e9d7 3406 	ldrd	r3, r4, [r7, #24]
4000133e:	4323      	orrs	r3, r4
40001340:	d008      	beq.n	40001354 <_kernel_timer_update+0x48>
40001342:	68fb      	ldr	r3, [r7, #12]
40001344:	e9d3 1218 	ldrd	r1, r2, [r3, #96]	; 0x60
40001348:	e9d7 3406 	ldrd	r3, r4, [r7, #24]
4000134c:	42a2      	cmp	r2, r4
4000134e:	bf08      	it	eq
40001350:	4299      	cmpeq	r1, r3
40001352:	d204      	bcs.n	4000135e <_kernel_timer_update+0x52>
40001354:	68fb      	ldr	r3, [r7, #12]
40001356:	e9d3 3418 	ldrd	r3, r4, [r3, #96]	; 0x60
4000135a:	e9c7 3406 	strd	r3, r4, [r7, #24]
4000135e:	e9d7 3406 	ldrd	r3, r4, [r7, #24]
40001362:	4323      	orrs	r3, r4
40001364:	d003      	beq.n	4000136e <_kernel_timer_update+0x62>
40001366:	e9d7 0106 	ldrd	r0, r1, [r7, #24]
4000136a:	f7ff fc9b 	bl	40000ca4 <update_first_timeout>
4000136e:	3724      	adds	r7, #36	; 0x24
40001370:	46bd      	mov	sp, r7
40001372:	bd90      	pop	{r4, r7, pc}

40001374 <task_add_timeout_queue>:
40001374:	b590      	push	{r4, r7, lr}
40001376:	b087      	sub	sp, #28
40001378:	af00      	add	r7, sp, #0
4000137a:	6078      	str	r0, [r7, #4]
4000137c:	687b      	ldr	r3, [r7, #4]
4000137e:	6f5b      	ldr	r3, [r3, #116]	; 0x74
40001380:	330c      	adds	r3, #12
40001382:	613b      	str	r3, [r7, #16]
40001384:	693b      	ldr	r3, [r7, #16]
40001386:	681b      	ldr	r3, [r3, #0]
40001388:	617b      	str	r3, [r7, #20]
4000138a:	e012      	b.n	400013b2 <task_add_timeout_queue+0x3e>
4000138c:	697b      	ldr	r3, [r7, #20]
4000138e:	60fb      	str	r3, [r7, #12]
40001390:	68fb      	ldr	r3, [r7, #12]
40001392:	3b58      	subs	r3, #88	; 0x58
40001394:	60bb      	str	r3, [r7, #8]
40001396:	687b      	ldr	r3, [r7, #4]
40001398:	e9d3 3418 	ldrd	r3, r4, [r3, #96]	; 0x60
4000139c:	68ba      	ldr	r2, [r7, #8]
4000139e:	e9d2 1218 	ldrd	r1, r2, [r2, #96]	; 0x60
400013a2:	42a2      	cmp	r2, r4
400013a4:	bf08      	it	eq
400013a6:	4299      	cmpeq	r1, r3
400013a8:	d300      	bcc.n	400013ac <task_add_timeout_queue+0x38>
400013aa:	e006      	b.n	400013ba <task_add_timeout_queue+0x46>
400013ac:	697b      	ldr	r3, [r7, #20]
400013ae:	681b      	ldr	r3, [r3, #0]
400013b0:	617b      	str	r3, [r7, #20]
400013b2:	697a      	ldr	r2, [r7, #20]
400013b4:	693b      	ldr	r3, [r7, #16]
400013b6:	429a      	cmp	r2, r3
400013b8:	d1e8      	bne.n	4000138c <task_add_timeout_queue+0x18>
400013ba:	687b      	ldr	r3, [r7, #4]
400013bc:	3358      	adds	r3, #88	; 0x58
400013be:	4619      	mov	r1, r3
400013c0:	6978      	ldr	r0, [r7, #20]
400013c2:	f7ff fdc1 	bl	40000f48 <link_add_last>
400013c6:	687b      	ldr	r3, [r7, #4]
400013c8:	6f5b      	ldr	r3, [r3, #116]	; 0x74
400013ca:	330c      	adds	r3, #12
400013cc:	4618      	mov	r0, r3
400013ce:	f7ff ff9d 	bl	4000130c <_kernel_timer_update>
400013d2:	371c      	adds	r7, #28
400013d4:	46bd      	mov	sp, r7
400013d6:	bd90      	pop	{r4, r7, pc}

400013d8 <task_sleep_stub>:
400013d8:	b580      	push	{r7, lr}
400013da:	b082      	sub	sp, #8
400013dc:	af00      	add	r7, sp, #0
400013de:	6078      	str	r0, [r7, #4]
400013e0:	6878      	ldr	r0, [r7, #4]
400013e2:	f7ff ff45 	bl	40001270 <task_remove_queue>
400013e6:	687b      	ldr	r3, [r7, #4]
400013e8:	4618      	mov	r0, r3
400013ea:	f7ff fd87 	bl	40000efc <link_clear>
400013ee:	2200      	movs	r2, #0
400013f0:	2100      	movs	r1, #0
400013f2:	6878      	ldr	r0, [r7, #4]
400013f4:	f7ff fdd6 	bl	40000fa4 <task_set_wait>
400013f8:	3708      	adds	r7, #8
400013fa:	46bd      	mov	sp, r7
400013fc:	bd80      	pop	{r7, pc}
400013fe:	bf00      	nop

40001400 <task_add_timeout>:
40001400:	b590      	push	{r4, r7, lr}
40001402:	b083      	sub	sp, #12
40001404:	af00      	add	r7, sp, #0
40001406:	6078      	str	r0, [r7, #4]
40001408:	6039      	str	r1, [r7, #0]
4000140a:	f7ff fc2b 	bl	40000c64 <get_tick_count>
4000140e:	460a      	mov	r2, r1
40001410:	4601      	mov	r1, r0
40001412:	683b      	ldr	r3, [r7, #0]
40001414:	f04f 0400 	mov.w	r4, #0
40001418:	185b      	adds	r3, r3, r1
4000141a:	eb44 0402 	adc.w	r4, r4, r2
4000141e:	687a      	ldr	r2, [r7, #4]
40001420:	e9c2 3418 	strd	r3, r4, [r2, #96]	; 0x60
40001424:	6878      	ldr	r0, [r7, #4]
40001426:	f7ff ffa5 	bl	40001374 <task_add_timeout_queue>
4000142a:	370c      	adds	r7, #12
4000142c:	46bd      	mov	sp, r7
4000142e:	bd90      	pop	{r4, r7, pc}

40001430 <task_wakeup_body>:
40001430:	b580      	push	{r7, lr}
40001432:	b084      	sub	sp, #16
40001434:	af00      	add	r7, sp, #0
40001436:	60f8      	str	r0, [r7, #12]
40001438:	60b9      	str	r1, [r7, #8]
4000143a:	4613      	mov	r3, r2
4000143c:	71fb      	strb	r3, [r7, #7]
4000143e:	68fb      	ldr	r3, [r7, #12]
40001440:	6d5b      	ldr	r3, [r3, #84]	; 0x54
40001442:	2b02      	cmp	r3, #2
40001444:	d13a      	bne.n	400014bc <task_wakeup_body+0x8c>
40001446:	68fb      	ldr	r3, [r7, #12]
40001448:	4618      	mov	r0, r3
4000144a:	f7ff fd97 	bl	40000f7c <link_is_empty>
4000144e:	4603      	mov	r3, r0
40001450:	f083 0301 	eor.w	r3, r3, #1
40001454:	b2db      	uxtb	r3, r3
40001456:	2b00      	cmp	r3, #0
40001458:	d007      	beq.n	4000146a <task_wakeup_body+0x3a>
4000145a:	68fb      	ldr	r3, [r7, #12]
4000145c:	4618      	mov	r0, r3
4000145e:	f7ff fd5d 	bl	40000f1c <link_remove>
40001462:	68fb      	ldr	r3, [r7, #12]
40001464:	4618      	mov	r0, r3
40001466:	f7ff fd49 	bl	40000efc <link_clear>
4000146a:	68fb      	ldr	r3, [r7, #12]
4000146c:	3358      	adds	r3, #88	; 0x58
4000146e:	4618      	mov	r0, r3
40001470:	f7ff fd84 	bl	40000f7c <link_is_empty>
40001474:	4603      	mov	r3, r0
40001476:	f083 0301 	eor.w	r3, r3, #1
4000147a:	b2db      	uxtb	r3, r3
4000147c:	2b00      	cmp	r3, #0
4000147e:	d009      	beq.n	40001494 <task_wakeup_body+0x64>
40001480:	68fb      	ldr	r3, [r7, #12]
40001482:	3358      	adds	r3, #88	; 0x58
40001484:	4618      	mov	r0, r3
40001486:	f7ff fd49 	bl	40000f1c <link_remove>
4000148a:	68fb      	ldr	r3, [r7, #12]
4000148c:	3358      	adds	r3, #88	; 0x58
4000148e:	4618      	mov	r0, r3
40001490:	f7ff fd34 	bl	40000efc <link_clear>
40001494:	68fb      	ldr	r3, [r7, #12]
40001496:	68ba      	ldr	r2, [r7, #8]
40001498:	671a      	str	r2, [r3, #112]	; 0x70
4000149a:	68fb      	ldr	r3, [r7, #12]
4000149c:	2201      	movs	r2, #1
4000149e:	655a      	str	r2, [r3, #84]	; 0x54
400014a0:	68f8      	ldr	r0, [r7, #12]
400014a2:	f7ff ff0d 	bl	400012c0 <task_add_queue>
400014a6:	79fb      	ldrb	r3, [r7, #7]
400014a8:	2b00      	cmp	r3, #0
400014aa:	d007      	beq.n	400014bc <task_wakeup_body+0x8c>
400014ac:	68fb      	ldr	r3, [r7, #12]
400014ae:	6edb      	ldr	r3, [r3, #108]	; 0x6c
400014b0:	2b00      	cmp	r3, #0
400014b2:	d003      	beq.n	400014bc <task_wakeup_body+0x8c>
400014b4:	68fb      	ldr	r3, [r7, #12]
400014b6:	6edb      	ldr	r3, [r3, #108]	; 0x6c
400014b8:	68f8      	ldr	r0, [r7, #12]
400014ba:	4798      	blx	r3
400014bc:	3710      	adds	r7, #16
400014be:	46bd      	mov	sp, r7
400014c0:	bd80      	pop	{r7, pc}
400014c2:	bf00      	nop

400014c4 <task_wakeup_stub>:
400014c4:	b580      	push	{r7, lr}
400014c6:	b082      	sub	sp, #8
400014c8:	af00      	add	r7, sp, #0
400014ca:	6078      	str	r0, [r7, #4]
400014cc:	6039      	str	r1, [r7, #0]
400014ce:	2200      	movs	r2, #0
400014d0:	6839      	ldr	r1, [r7, #0]
400014d2:	6878      	ldr	r0, [r7, #4]
400014d4:	f7ff ffac 	bl	40001430 <task_wakeup_body>
400014d8:	3708      	adds	r7, #8
400014da:	46bd      	mov	sp, r7
400014dc:	bd80      	pop	{r7, pc}
400014de:	bf00      	nop

400014e0 <task_wakeup_async>:
400014e0:	b580      	push	{r7, lr}
400014e2:	b082      	sub	sp, #8
400014e4:	af00      	add	r7, sp, #0
400014e6:	6078      	str	r0, [r7, #4]
400014e8:	6039      	str	r1, [r7, #0]
400014ea:	2201      	movs	r2, #1
400014ec:	6839      	ldr	r1, [r7, #0]
400014ee:	6878      	ldr	r0, [r7, #4]
400014f0:	f7ff ff9e 	bl	40001430 <task_wakeup_body>
400014f4:	3708      	adds	r7, #8
400014f6:	46bd      	mov	sp, r7
400014f8:	bd80      	pop	{r7, pc}
400014fa:	bf00      	nop

400014fc <task_tick>:
400014fc:	b590      	push	{r4, r7, lr}
400014fe:	b08b      	sub	sp, #44	; 0x2c
40001500:	af00      	add	r7, sp, #0
40001502:	2300      	movs	r3, #0
40001504:	f887 3027 	strb.w	r3, [r7, #39]	; 0x27
40001508:	f3ef 8300 	mrs	r3, CPSR
4000150c:	b672      	cpsid	i
4000150e:	623b      	str	r3, [r7, #32]
40001510:	ee10 3fb0 	mrc	15, 0, r3, cr0, cr0, {5}
40001514:	61fb      	str	r3, [r7, #28]
40001516:	69fb      	ldr	r3, [r7, #28]
40001518:	b2db      	uxtb	r3, r3
4000151a:	f44f 7290 	mov.w	r2, #288	; 0x120
4000151e:	fb02 f203 	mul.w	r2, r2, r3
40001522:	f245 23ac 	movw	r3, #21164	; 0x52ac
40001526:	f2c4 0300 	movt	r3, #16384	; 0x4000
4000152a:	4413      	add	r3, r2
4000152c:	61bb      	str	r3, [r7, #24]
4000152e:	f7ff fb99 	bl	40000c64 <get_tick_count>
40001532:	e9c7 0104 	strd	r0, r1, [r7, #16]
40001536:	69bb      	ldr	r3, [r7, #24]
40001538:	330c      	adds	r3, #12
4000153a:	60fb      	str	r3, [r7, #12]
4000153c:	e016      	b.n	4000156c <task_tick+0x70>
4000153e:	68bb      	ldr	r3, [r7, #8]
40001540:	607b      	str	r3, [r7, #4]
40001542:	687b      	ldr	r3, [r7, #4]
40001544:	3b58      	subs	r3, #88	; 0x58
40001546:	603b      	str	r3, [r7, #0]
40001548:	683b      	ldr	r3, [r7, #0]
4000154a:	e9d3 3418 	ldrd	r3, r4, [r3, #96]	; 0x60
4000154e:	e9d7 1204 	ldrd	r1, r2, [r7, #16]
40001552:	42a2      	cmp	r2, r4
40001554:	bf08      	it	eq
40001556:	4299      	cmpeq	r1, r3
40001558:	d200      	bcs.n	4000155c <task_tick+0x60>
4000155a:	e00e      	b.n	4000157a <task_tick+0x7e>
4000155c:	f06f 0101 	mvn.w	r1, #1
40001560:	6838      	ldr	r0, [r7, #0]
40001562:	f7ff ffbd 	bl	400014e0 <task_wakeup_async>
40001566:	2301      	movs	r3, #1
40001568:	f887 3027 	strb.w	r3, [r7, #39]	; 0x27
4000156c:	68fb      	ldr	r3, [r7, #12]
4000156e:	681b      	ldr	r3, [r3, #0]
40001570:	60bb      	str	r3, [r7, #8]
40001572:	68ba      	ldr	r2, [r7, #8]
40001574:	68fb      	ldr	r3, [r7, #12]
40001576:	429a      	cmp	r2, r3
40001578:	d1e1      	bne.n	4000153e <task_tick+0x42>
4000157a:	f897 3027 	ldrb.w	r3, [r7, #39]	; 0x27
4000157e:	2b00      	cmp	r3, #0
40001580:	d002      	beq.n	40001588 <task_tick+0x8c>
40001582:	69b8      	ldr	r0, [r7, #24]
40001584:	f000 f810 	bl	400015a8 <schedule>
40001588:	e9d7 0104 	ldrd	r0, r1, [r7, #16]
4000158c:	f001 fcd0 	bl	40002f30 <_timer_notify_tick>
40001590:	68f8      	ldr	r0, [r7, #12]
40001592:	f7ff febb 	bl	4000130c <_kernel_timer_update>
40001596:	6a3b      	ldr	r3, [r7, #32]
40001598:	f003 0380 	and.w	r3, r3, #128	; 0x80
4000159c:	2b00      	cmp	r3, #0
4000159e:	d100      	bne.n	400015a2 <task_tick+0xa6>
400015a0:	b662      	cpsie	i
400015a2:	372c      	adds	r7, #44	; 0x2c
400015a4:	46bd      	mov	sp, r7
400015a6:	bd90      	pop	{r4, r7, pc}

400015a8 <schedule>:
400015a8:	b580      	push	{r7, lr}
400015aa:	b086      	sub	sp, #24
400015ac:	af00      	add	r7, sp, #0
400015ae:	6078      	str	r0, [r7, #4]
400015b0:	687b      	ldr	r3, [r7, #4]
400015b2:	3314      	adds	r3, #20
400015b4:	617b      	str	r3, [r7, #20]
400015b6:	687b      	ldr	r3, [r7, #4]
400015b8:	2200      	movs	r2, #0
400015ba:	605a      	str	r2, [r3, #4]
400015bc:	697b      	ldr	r3, [r7, #20]
400015be:	685b      	ldr	r3, [r3, #4]
400015c0:	2b00      	cmp	r3, #0
400015c2:	d00d      	beq.n	400015e0 <schedule+0x38>
400015c4:	697b      	ldr	r3, [r7, #20]
400015c6:	685b      	ldr	r3, [r3, #4]
400015c8:	4618      	mov	r0, r3
400015ca:	f7ff fe13 	bl	400011f4 <lowest_bit>
400015ce:	4603      	mov	r3, r0
400015d0:	613b      	str	r3, [r7, #16]
400015d2:	697b      	ldr	r3, [r7, #20]
400015d4:	693a      	ldr	r2, [r7, #16]
400015d6:	3201      	adds	r2, #1
400015d8:	f853 2032 	ldr.w	r2, [r3, r2, lsl #3]
400015dc:	687b      	ldr	r3, [r7, #4]
400015de:	605a      	str	r2, [r3, #4]
400015e0:	687b      	ldr	r3, [r7, #4]
400015e2:	681a      	ldr	r2, [r3, #0]
400015e4:	687b      	ldr	r3, [r7, #4]
400015e6:	685b      	ldr	r3, [r3, #4]
400015e8:	429a      	cmp	r2, r3
400015ea:	bf14      	ite	ne
400015ec:	2301      	movne	r3, #1
400015ee:	2300      	moveq	r3, #0
400015f0:	73fb      	strb	r3, [r7, #15]
400015f2:	f3bf 8f5f 	dmb	sy
400015f6:	7bfb      	ldrb	r3, [r7, #15]
400015f8:	4618      	mov	r0, r3
400015fa:	3718      	adds	r7, #24
400015fc:	46bd      	mov	sp, r7
400015fe:	bd80      	pop	{r7, pc}

40001600 <self_request_dispatch>:
40001600:	b580      	push	{r7, lr}
40001602:	af00      	add	r7, sp, #0
40001604:	f7ff fdee 	bl	400011e4 <can_dispatch>
40001608:	4603      	mov	r3, r0
4000160a:	2b00      	cmp	r3, #0
4000160c:	d001      	beq.n	40001612 <self_request_dispatch+0x12>
4000160e:	f002 f8a7 	bl	40003760 <_dispatch>
40001612:	bd80      	pop	{r7, pc}

40001614 <task_init_struct>:
40001614:	b590      	push	{r4, r7, lr}
40001616:	b087      	sub	sp, #28
40001618:	af00      	add	r7, sp, #0
4000161a:	60f8      	str	r0, [r7, #12]
4000161c:	60b9      	str	r1, [r7, #8]
4000161e:	607a      	str	r2, [r7, #4]
40001620:	603b      	str	r3, [r7, #0]
40001622:	68fb      	ldr	r3, [r7, #12]
40001624:	4618      	mov	r0, r3
40001626:	f7ff fc69 	bl	40000efc <link_clear>
4000162a:	68fb      	ldr	r3, [r7, #12]
4000162c:	2200      	movs	r2, #0
4000162e:	609a      	str	r2, [r3, #8]
40001630:	68fb      	ldr	r3, [r7, #12]
40001632:	2200      	movs	r2, #0
40001634:	60da      	str	r2, [r3, #12]
40001636:	68bb      	ldr	r3, [r7, #8]
40001638:	2b00      	cmp	r3, #0
4000163a:	d007      	beq.n	4000164c <task_init_struct+0x38>
4000163c:	68fb      	ldr	r3, [r7, #12]
4000163e:	3310      	adds	r3, #16
40001640:	221f      	movs	r2, #31
40001642:	68b9      	ldr	r1, [r7, #8]
40001644:	4618      	mov	r0, r3
40001646:	f001 ffdf 	bl	40003608 <strncpy>
4000164a:	e002      	b.n	40001652 <task_init_struct+0x3e>
4000164c:	68fb      	ldr	r3, [r7, #12]
4000164e:	2200      	movs	r2, #0
40001650:	741a      	strb	r2, [r3, #16]
40001652:	68fb      	ldr	r3, [r7, #12]
40001654:	687a      	ldr	r2, [r7, #4]
40001656:	631a      	str	r2, [r3, #48]	; 0x30
40001658:	683a      	ldr	r2, [r7, #0]
4000165a:	68fb      	ldr	r3, [r7, #12]
4000165c:	635a      	str	r2, [r3, #52]	; 0x34
4000165e:	68fb      	ldr	r3, [r7, #12]
40001660:	2200      	movs	r2, #0
40001662:	639a      	str	r2, [r3, #56]	; 0x38
40001664:	68fb      	ldr	r3, [r7, #12]
40001666:	f44f 6200 	mov.w	r2, #2048	; 0x800
4000166a:	63da      	str	r2, [r3, #60]	; 0x3c
4000166c:	68fb      	ldr	r3, [r7, #12]
4000166e:	6aba      	ldr	r2, [r7, #40]	; 0x28
40001670:	641a      	str	r2, [r3, #64]	; 0x40
40001672:	68fb      	ldr	r3, [r7, #12]
40001674:	6afa      	ldr	r2, [r7, #44]	; 0x2c
40001676:	645a      	str	r2, [r3, #68]	; 0x44
40001678:	68fb      	ldr	r3, [r7, #12]
4000167a:	6b3a      	ldr	r2, [r7, #48]	; 0x30
4000167c:	649a      	str	r2, [r3, #72]	; 0x48
4000167e:	68fb      	ldr	r3, [r7, #12]
40001680:	2200      	movs	r2, #0
40001682:	64da      	str	r2, [r3, #76]	; 0x4c
40001684:	68fb      	ldr	r3, [r7, #12]
40001686:	2200      	movs	r2, #0
40001688:	651a      	str	r2, [r3, #80]	; 0x50
4000168a:	68fb      	ldr	r3, [r7, #12]
4000168c:	2200      	movs	r2, #0
4000168e:	655a      	str	r2, [r3, #84]	; 0x54
40001690:	68fb      	ldr	r3, [r7, #12]
40001692:	3358      	adds	r3, #88	; 0x58
40001694:	4618      	mov	r0, r3
40001696:	f7ff fc31 	bl	40000efc <link_clear>
4000169a:	68fa      	ldr	r2, [r7, #12]
4000169c:	f04f 0300 	mov.w	r3, #0
400016a0:	f04f 0400 	mov.w	r4, #0
400016a4:	e9c2 3418 	strd	r3, r4, [r2, #96]	; 0x60
400016a8:	68fb      	ldr	r3, [r7, #12]
400016aa:	2200      	movs	r2, #0
400016ac:	669a      	str	r2, [r3, #104]	; 0x68
400016ae:	68fb      	ldr	r3, [r7, #12]
400016b0:	2200      	movs	r2, #0
400016b2:	66da      	str	r2, [r3, #108]	; 0x6c
400016b4:	68fb      	ldr	r3, [r7, #12]
400016b6:	2200      	movs	r2, #0
400016b8:	671a      	str	r2, [r3, #112]	; 0x70
400016ba:	687b      	ldr	r3, [r7, #4]
400016bc:	0e1b      	lsrs	r3, r3, #24
400016be:	617b      	str	r3, [r7, #20]
400016c0:	697b      	ldr	r3, [r7, #20]
400016c2:	f1b3 4f7f 	cmp.w	r3, #4278190080	; 0xff000000
400016c6:	d105      	bne.n	400016d4 <task_init_struct+0xc0>
400016c8:	ee10 3fb0 	mrc	15, 0, r3, cr0, cr0, {5}
400016cc:	613b      	str	r3, [r7, #16]
400016ce:	693b      	ldr	r3, [r7, #16]
400016d0:	b2db      	uxtb	r3, r3
400016d2:	617b      	str	r3, [r7, #20]
400016d4:	697b      	ldr	r3, [r7, #20]
400016d6:	f44f 7290 	mov.w	r2, #288	; 0x120
400016da:	fb02 f203 	mul.w	r2, r2, r3
400016de:	f245 23ac 	movw	r3, #21164	; 0x52ac
400016e2:	f2c4 0300 	movt	r3, #16384	; 0x4000
400016e6:	441a      	add	r2, r3
400016e8:	68fb      	ldr	r3, [r7, #12]
400016ea:	675a      	str	r2, [r3, #116]	; 0x74
400016ec:	371c      	adds	r7, #28
400016ee:	46bd      	mov	sp, r7
400016f0:	bd90      	pop	{r4, r7, pc}
400016f2:	bf00      	nop

400016f4 <task_init_task_create>:
400016f4:	b580      	push	{r7, lr}
400016f6:	b084      	sub	sp, #16
400016f8:	af04      	add	r7, sp, #16
400016fa:	2300      	movs	r3, #0
400016fc:	9302      	str	r3, [sp, #8]
400016fe:	f44f 6380 	mov.w	r3, #1024	; 0x400
40001702:	9301      	str	r3, [sp, #4]
40001704:	2300      	movs	r3, #0
40001706:	9300      	str	r3, [sp, #0]
40001708:	f642 33c5 	movw	r3, #11205	; 0x2bc5
4000170c:	f2c4 0300 	movt	r3, #16384	; 0x4000
40001710:	2205      	movs	r2, #5
40001712:	f643 613c 	movw	r1, #15932	; 0x3e3c
40001716:	f2c4 0100 	movt	r1, #16384	; 0x4000
4000171a:	f244 10d8 	movw	r0, #16856	; 0x41d8
4000171e:	f2c4 0000 	movt	r0, #16384	; 0x4000
40001722:	f7ff ff77 	bl	40001614 <task_init_struct>
40001726:	f244 13d8 	movw	r3, #16856	; 0x41d8
4000172a:	f2c4 0300 	movt	r3, #16384	; 0x4000
4000172e:	6bdb      	ldr	r3, [r3, #60]	; 0x3c
40001730:	2108      	movs	r1, #8
40001732:	4618      	mov	r0, r3
40001734:	f000 fe14 	bl	40002360 <sys_malloc_align_body>
40001738:	4602      	mov	r2, r0
4000173a:	f244 13d8 	movw	r3, #16856	; 0x41d8
4000173e:	f2c4 0300 	movt	r3, #16384	; 0x4000
40001742:	639a      	str	r2, [r3, #56]	; 0x38
40001744:	f244 13d8 	movw	r3, #16856	; 0x41d8
40001748:	f2c4 0300 	movt	r3, #16384	; 0x4000
4000174c:	6c5b      	ldr	r3, [r3, #68]	; 0x44
4000174e:	2108      	movs	r1, #8
40001750:	4618      	mov	r0, r3
40001752:	f000 fe05 	bl	40002360 <sys_malloc_align_body>
40001756:	4602      	mov	r2, r0
40001758:	f244 13d8 	movw	r3, #16856	; 0x41d8
4000175c:	f2c4 0300 	movt	r3, #16384	; 0x4000
40001760:	641a      	str	r2, [r3, #64]	; 0x40
40001762:	f244 10d8 	movw	r0, #16856	; 0x41d8
40001766:	f2c4 0000 	movt	r0, #16384	; 0x4000
4000176a:	f7fe fe07 	bl	4000037c <arch_init_task_create>
4000176e:	f244 13d8 	movw	r3, #16856	; 0x41d8
40001772:	f2c4 0300 	movt	r3, #16384	; 0x4000
40001776:	2201      	movs	r2, #1
40001778:	655a      	str	r2, [r3, #84]	; 0x54
4000177a:	f244 10d8 	movw	r0, #16856	; 0x41d8
4000177e:	f2c4 0000 	movt	r0, #16384	; 0x4000
40001782:	f7ff fd9d 	bl	400012c0 <task_add_queue>
40001786:	46bd      	mov	sp, r7
40001788:	bd80      	pop	{r7, pc}
4000178a:	bf00      	nop

4000178c <_kernel_task_create>:
4000178c:	b5b0      	push	{r4, r5, r7, lr}
4000178e:	b08a      	sub	sp, #40	; 0x28
40001790:	af04      	add	r7, sp, #16
40001792:	6078      	str	r0, [r7, #4]
40001794:	6039      	str	r1, [r7, #0]
40001796:	2300      	movs	r3, #0
40001798:	75fb      	strb	r3, [r7, #23]
4000179a:	2300      	movs	r3, #0
4000179c:	75bb      	strb	r3, [r7, #22]
4000179e:	683b      	ldr	r3, [r7, #0]
400017a0:	6818      	ldr	r0, [r3, #0]
400017a2:	683b      	ldr	r3, [r7, #0]
400017a4:	685c      	ldr	r4, [r3, #4]
400017a6:	683b      	ldr	r3, [r7, #0]
400017a8:	689d      	ldr	r5, [r3, #8]
400017aa:	683b      	ldr	r3, [r7, #0]
400017ac:	68db      	ldr	r3, [r3, #12]
400017ae:	683a      	ldr	r2, [r7, #0]
400017b0:	6912      	ldr	r2, [r2, #16]
400017b2:	6839      	ldr	r1, [r7, #0]
400017b4:	6989      	ldr	r1, [r1, #24]
400017b6:	9102      	str	r1, [sp, #8]
400017b8:	9201      	str	r2, [sp, #4]
400017ba:	9300      	str	r3, [sp, #0]
400017bc:	462b      	mov	r3, r5
400017be:	4622      	mov	r2, r4
400017c0:	4601      	mov	r1, r0
400017c2:	6878      	ldr	r0, [r7, #4]
400017c4:	f7ff ff26 	bl	40001614 <task_init_struct>
400017c8:	687b      	ldr	r3, [r7, #4]
400017ca:	6b9b      	ldr	r3, [r3, #56]	; 0x38
400017cc:	2b00      	cmp	r3, #0
400017ce:	d10f      	bne.n	400017f0 <_kernel_task_create+0x64>
400017d0:	687b      	ldr	r3, [r7, #4]
400017d2:	6bdb      	ldr	r3, [r3, #60]	; 0x3c
400017d4:	2108      	movs	r1, #8
400017d6:	4618      	mov	r0, r3
400017d8:	f000 fe94 	bl	40002504 <__sys_malloc_align>
400017dc:	4602      	mov	r2, r0
400017de:	687b      	ldr	r3, [r7, #4]
400017e0:	639a      	str	r2, [r3, #56]	; 0x38
400017e2:	687b      	ldr	r3, [r7, #4]
400017e4:	6b9b      	ldr	r3, [r3, #56]	; 0x38
400017e6:	2b00      	cmp	r3, #0
400017e8:	d100      	bne.n	400017ec <_kernel_task_create+0x60>
400017ea:	e08c      	b.n	40001906 <_kernel_task_create+0x17a>
400017ec:	2301      	movs	r3, #1
400017ee:	75fb      	strb	r3, [r7, #23]
400017f0:	687b      	ldr	r3, [r7, #4]
400017f2:	6c1b      	ldr	r3, [r3, #64]	; 0x40
400017f4:	2b00      	cmp	r3, #0
400017f6:	d10f      	bne.n	40001818 <_kernel_task_create+0x8c>
400017f8:	687b      	ldr	r3, [r7, #4]
400017fa:	6c5b      	ldr	r3, [r3, #68]	; 0x44
400017fc:	2108      	movs	r1, #8
400017fe:	4618      	mov	r0, r3
40001800:	f000 fe80 	bl	40002504 <__sys_malloc_align>
40001804:	4602      	mov	r2, r0
40001806:	687b      	ldr	r3, [r7, #4]
40001808:	641a      	str	r2, [r3, #64]	; 0x40
4000180a:	687b      	ldr	r3, [r7, #4]
4000180c:	6c1b      	ldr	r3, [r3, #64]	; 0x40
4000180e:	2b00      	cmp	r3, #0
40001810:	d100      	bne.n	40001814 <_kernel_task_create+0x88>
40001812:	e070      	b.n	400018f6 <_kernel_task_create+0x16a>
40001814:	2301      	movs	r3, #1
40001816:	75bb      	strb	r3, [r7, #22]
40001818:	687b      	ldr	r3, [r7, #4]
4000181a:	6cdb      	ldr	r3, [r3, #76]	; 0x4c
4000181c:	2b00      	cmp	r3, #0
4000181e:	d118      	bne.n	40001852 <_kernel_task_create+0xc6>
40001820:	687b      	ldr	r3, [r7, #4]
40001822:	6d1b      	ldr	r3, [r3, #80]	; 0x50
40001824:	2b00      	cmp	r3, #0
40001826:	d014      	beq.n	40001852 <_kernel_task_create+0xc6>
40001828:	687b      	ldr	r3, [r7, #4]
4000182a:	6d1b      	ldr	r3, [r3, #80]	; 0x50
4000182c:	2108      	movs	r1, #8
4000182e:	4618      	mov	r0, r3
40001830:	f000 fe68 	bl	40002504 <__sys_malloc_align>
40001834:	4602      	mov	r2, r0
40001836:	687b      	ldr	r3, [r7, #4]
40001838:	64da      	str	r2, [r3, #76]	; 0x4c
4000183a:	687b      	ldr	r3, [r7, #4]
4000183c:	6cdb      	ldr	r3, [r3, #76]	; 0x4c
4000183e:	2b00      	cmp	r3, #0
40001840:	d007      	beq.n	40001852 <_kernel_task_create+0xc6>
40001842:	687b      	ldr	r3, [r7, #4]
40001844:	6cd8      	ldr	r0, [r3, #76]	; 0x4c
40001846:	687b      	ldr	r3, [r7, #4]
40001848:	6d1b      	ldr	r3, [r3, #80]	; 0x50
4000184a:	461a      	mov	r2, r3
4000184c:	2100      	movs	r1, #0
4000184e:	f001 fbe1 	bl	40003014 <memset>
40001852:	683b      	ldr	r3, [r7, #0]
40001854:	69db      	ldr	r3, [r3, #28]
40001856:	4619      	mov	r1, r3
40001858:	6878      	ldr	r0, [r7, #4]
4000185a:	f7fe fd9b 	bl	40000394 <arch_task_create>
4000185e:	4603      	mov	r3, r0
40001860:	2b00      	cmp	r3, #0
40001862:	d004      	beq.n	4000186e <_kernel_task_create+0xe2>
40001864:	bf00      	nop
40001866:	7dbb      	ldrb	r3, [r7, #22]
40001868:	2b00      	cmp	r3, #0
4000186a:	d044      	beq.n	400018f6 <_kernel_task_create+0x16a>
4000186c:	e03e      	b.n	400018ec <_kernel_task_create+0x160>
4000186e:	687b      	ldr	r3, [r7, #4]
40001870:	6b1b      	ldr	r3, [r3, #48]	; 0x30
40001872:	f003 0301 	and.w	r3, r3, #1
40001876:	2b00      	cmp	r3, #0
40001878:	d036      	beq.n	400018e8 <_kernel_task_create+0x15c>
4000187a:	f3ef 8300 	mrs	r3, CPSR
4000187e:	b672      	cpsid	i
40001880:	613b      	str	r3, [r7, #16]
40001882:	687b      	ldr	r3, [r7, #4]
40001884:	6f5b      	ldr	r3, [r3, #116]	; 0x74
40001886:	4618      	mov	r0, r3
40001888:	f7ff fc1a 	bl	400010c0 <cpu_spinlock>
4000188c:	687b      	ldr	r3, [r7, #4]
4000188e:	2201      	movs	r2, #1
40001890:	655a      	str	r2, [r3, #84]	; 0x54
40001892:	6878      	ldr	r0, [r7, #4]
40001894:	f7ff fd14 	bl	400012c0 <task_add_queue>
40001898:	687b      	ldr	r3, [r7, #4]
4000189a:	6f5b      	ldr	r3, [r3, #116]	; 0x74
4000189c:	4618      	mov	r0, r3
4000189e:	f7ff fe83 	bl	400015a8 <schedule>
400018a2:	4603      	mov	r3, r0
400018a4:	73fb      	strb	r3, [r7, #15]
400018a6:	687b      	ldr	r3, [r7, #4]
400018a8:	6f5b      	ldr	r3, [r3, #116]	; 0x74
400018aa:	4618      	mov	r0, r3
400018ac:	f7ff fc14 	bl	400010d8 <cpu_spinunlock>
400018b0:	7bfb      	ldrb	r3, [r7, #15]
400018b2:	2b00      	cmp	r3, #0
400018b4:	d012      	beq.n	400018dc <_kernel_task_create+0x150>
400018b6:	687b      	ldr	r3, [r7, #4]
400018b8:	6f5b      	ldr	r3, [r3, #116]	; 0x74
400018ba:	f8d3 211c 	ldr.w	r2, [r3, #284]	; 0x11c
400018be:	ee10 3fb0 	mrc	15, 0, r3, cr0, cr0, {5}
400018c2:	60bb      	str	r3, [r7, #8]
400018c4:	68bb      	ldr	r3, [r7, #8]
400018c6:	b2db      	uxtb	r3, r3
400018c8:	429a      	cmp	r2, r3
400018ca:	d102      	bne.n	400018d2 <_kernel_task_create+0x146>
400018cc:	f7ff fe98 	bl	40001600 <self_request_dispatch>
400018d0:	e004      	b.n	400018dc <_kernel_task_create+0x150>
400018d2:	687b      	ldr	r3, [r7, #4]
400018d4:	6f5b      	ldr	r3, [r3, #116]	; 0x74
400018d6:	4618      	mov	r0, r3
400018d8:	f7fe fefe 	bl	400006d8 <ipi_request_dispatch_one>
400018dc:	693b      	ldr	r3, [r7, #16]
400018de:	f003 0380 	and.w	r3, r3, #128	; 0x80
400018e2:	2b00      	cmp	r3, #0
400018e4:	d100      	bne.n	400018e8 <_kernel_task_create+0x15c>
400018e6:	b662      	cpsie	i
400018e8:	2300      	movs	r3, #0
400018ea:	e011      	b.n	40001910 <_kernel_task_create+0x184>
400018ec:	687b      	ldr	r3, [r7, #4]
400018ee:	6c1b      	ldr	r3, [r3, #64]	; 0x40
400018f0:	4618      	mov	r0, r3
400018f2:	f000 fe3d 	bl	40002570 <__sys_free>
400018f6:	7dfb      	ldrb	r3, [r7, #23]
400018f8:	2b00      	cmp	r3, #0
400018fa:	d004      	beq.n	40001906 <_kernel_task_create+0x17a>
400018fc:	687b      	ldr	r3, [r7, #4]
400018fe:	6b9b      	ldr	r3, [r3, #56]	; 0x38
40001900:	4618      	mov	r0, r3
40001902:	f000 fe35 	bl	40002570 <__sys_free>
40001906:	6878      	ldr	r0, [r7, #4]
40001908:	f000 fe32 	bl	40002570 <__sys_free>
4000190c:	f04f 33ff 	mov.w	r3, #4294967295
40001910:	4618      	mov	r0, r3
40001912:	3718      	adds	r7, #24
40001914:	46bd      	mov	sp, r7
40001916:	bdb0      	pop	{r4, r5, r7, pc}

40001918 <_kernel_task_active>:
40001918:	b580      	push	{r7, lr}
4000191a:	b086      	sub	sp, #24
4000191c:	af00      	add	r7, sp, #0
4000191e:	6078      	str	r0, [r7, #4]
40001920:	6039      	str	r1, [r7, #0]
40001922:	2300      	movs	r3, #0
40001924:	75fb      	strb	r3, [r7, #23]
40001926:	f3ef 8300 	mrs	r3, CPSR
4000192a:	b672      	cpsid	i
4000192c:	613b      	str	r3, [r7, #16]
4000192e:	687b      	ldr	r3, [r7, #4]
40001930:	6f5b      	ldr	r3, [r3, #116]	; 0x74
40001932:	4618      	mov	r0, r3
40001934:	f7ff fbc4 	bl	400010c0 <cpu_spinlock>
40001938:	6839      	ldr	r1, [r7, #0]
4000193a:	6878      	ldr	r0, [r7, #4]
4000193c:	f7fe fd58 	bl	400003f0 <arch_task_active>
40001940:	687b      	ldr	r3, [r7, #4]
40001942:	6d5b      	ldr	r3, [r3, #84]	; 0x54
40001944:	2b00      	cmp	r3, #0
40001946:	d10c      	bne.n	40001962 <_kernel_task_active+0x4a>
40001948:	687b      	ldr	r3, [r7, #4]
4000194a:	2201      	movs	r2, #1
4000194c:	655a      	str	r2, [r3, #84]	; 0x54
4000194e:	6878      	ldr	r0, [r7, #4]
40001950:	f7ff fcb6 	bl	400012c0 <task_add_queue>
40001954:	687b      	ldr	r3, [r7, #4]
40001956:	6f5b      	ldr	r3, [r3, #116]	; 0x74
40001958:	4618      	mov	r0, r3
4000195a:	f7ff fe25 	bl	400015a8 <schedule>
4000195e:	4603      	mov	r3, r0
40001960:	75fb      	strb	r3, [r7, #23]
40001962:	687b      	ldr	r3, [r7, #4]
40001964:	6f5b      	ldr	r3, [r3, #116]	; 0x74
40001966:	4618      	mov	r0, r3
40001968:	f7ff fbb6 	bl	400010d8 <cpu_spinunlock>
4000196c:	7dfb      	ldrb	r3, [r7, #23]
4000196e:	2b00      	cmp	r3, #0
40001970:	d012      	beq.n	40001998 <_kernel_task_active+0x80>
40001972:	687b      	ldr	r3, [r7, #4]
40001974:	6f5b      	ldr	r3, [r3, #116]	; 0x74
40001976:	f8d3 211c 	ldr.w	r2, [r3, #284]	; 0x11c
4000197a:	ee10 3fb0 	mrc	15, 0, r3, cr0, cr0, {5}
4000197e:	60fb      	str	r3, [r7, #12]
40001980:	68fb      	ldr	r3, [r7, #12]
40001982:	b2db      	uxtb	r3, r3
40001984:	429a      	cmp	r2, r3
40001986:	d102      	bne.n	4000198e <_kernel_task_active+0x76>
40001988:	f7ff fe3a 	bl	40001600 <self_request_dispatch>
4000198c:	e004      	b.n	40001998 <_kernel_task_active+0x80>
4000198e:	687b      	ldr	r3, [r7, #4]
40001990:	6f5b      	ldr	r3, [r3, #116]	; 0x74
40001992:	4618      	mov	r0, r3
40001994:	f7fe fea0 	bl	400006d8 <ipi_request_dispatch_one>
40001998:	693b      	ldr	r3, [r7, #16]
4000199a:	f003 0380 	and.w	r3, r3, #128	; 0x80
4000199e:	2b00      	cmp	r3, #0
400019a0:	d100      	bne.n	400019a4 <_kernel_task_active+0x8c>
400019a2:	b662      	cpsie	i
400019a4:	2300      	movs	r3, #0
400019a6:	4618      	mov	r0, r3
400019a8:	3718      	adds	r7, #24
400019aa:	46bd      	mov	sp, r7
400019ac:	bd80      	pop	{r7, pc}
400019ae:	bf00      	nop

400019b0 <_kernel_task_sleep>:
400019b0:	b580      	push	{r7, lr}
400019b2:	b086      	sub	sp, #24
400019b4:	af00      	add	r7, sp, #0
400019b6:	2300      	movs	r3, #0
400019b8:	75fb      	strb	r3, [r7, #23]
400019ba:	f3ef 8300 	mrs	r3, CPSR
400019be:	b672      	cpsid	i
400019c0:	613b      	str	r3, [r7, #16]
400019c2:	ee10 3fb0 	mrc	15, 0, r3, cr0, cr0, {5}
400019c6:	60fb      	str	r3, [r7, #12]
400019c8:	68fb      	ldr	r3, [r7, #12]
400019ca:	b2da      	uxtb	r2, r3
400019cc:	f245 23ac 	movw	r3, #21164	; 0x52ac
400019d0:	f2c4 0300 	movt	r3, #16384	; 0x4000
400019d4:	f44f 7190 	mov.w	r1, #288	; 0x120
400019d8:	fb01 f202 	mul.w	r2, r1, r2
400019dc:	4413      	add	r3, r2
400019de:	681b      	ldr	r3, [r3, #0]
400019e0:	60bb      	str	r3, [r7, #8]
400019e2:	68bb      	ldr	r3, [r7, #8]
400019e4:	6f5b      	ldr	r3, [r3, #116]	; 0x74
400019e6:	607b      	str	r3, [r7, #4]
400019e8:	6878      	ldr	r0, [r7, #4]
400019ea:	f7ff fb69 	bl	400010c0 <cpu_spinlock>
400019ee:	68b8      	ldr	r0, [r7, #8]
400019f0:	f7ff fcf2 	bl	400013d8 <task_sleep_stub>
400019f4:	6878      	ldr	r0, [r7, #4]
400019f6:	f7ff fdd7 	bl	400015a8 <schedule>
400019fa:	4603      	mov	r3, r0
400019fc:	75fb      	strb	r3, [r7, #23]
400019fe:	6878      	ldr	r0, [r7, #4]
40001a00:	f7ff fb6a 	bl	400010d8 <cpu_spinunlock>
40001a04:	7dfb      	ldrb	r3, [r7, #23]
40001a06:	2b00      	cmp	r3, #0
40001a08:	d001      	beq.n	40001a0e <_kernel_task_sleep+0x5e>
40001a0a:	f7ff fdf9 	bl	40001600 <self_request_dispatch>
40001a0e:	693b      	ldr	r3, [r7, #16]
40001a10:	f003 0380 	and.w	r3, r3, #128	; 0x80
40001a14:	2b00      	cmp	r3, #0
40001a16:	d100      	bne.n	40001a1a <_kernel_task_sleep+0x6a>
40001a18:	b662      	cpsie	i
40001a1a:	2300      	movs	r3, #0
40001a1c:	4618      	mov	r0, r3
40001a1e:	3718      	adds	r7, #24
40001a20:	46bd      	mov	sp, r7
40001a22:	bd80      	pop	{r7, pc}

40001a24 <_kernel_task_wakeup>:
40001a24:	b580      	push	{r7, lr}
40001a26:	b088      	sub	sp, #32
40001a28:	af00      	add	r7, sp, #0
40001a2a:	6078      	str	r0, [r7, #4]
40001a2c:	2300      	movs	r3, #0
40001a2e:	77fb      	strb	r3, [r7, #31]
40001a30:	f04f 33ff 	mov.w	r3, #4294967295
40001a34:	61bb      	str	r3, [r7, #24]
40001a36:	f3ef 8300 	mrs	r3, CPSR
40001a3a:	b672      	cpsid	i
40001a3c:	617b      	str	r3, [r7, #20]
40001a3e:	687b      	ldr	r3, [r7, #4]
40001a40:	6f5b      	ldr	r3, [r3, #116]	; 0x74
40001a42:	613b      	str	r3, [r7, #16]
40001a44:	6938      	ldr	r0, [r7, #16]
40001a46:	f7ff fb3b 	bl	400010c0 <cpu_spinlock>
40001a4a:	687b      	ldr	r3, [r7, #4]
40001a4c:	6d5b      	ldr	r3, [r3, #84]	; 0x54
40001a4e:	2b02      	cmp	r3, #2
40001a50:	d112      	bne.n	40001a78 <_kernel_task_wakeup+0x54>
40001a52:	687b      	ldr	r3, [r7, #4]
40001a54:	4618      	mov	r0, r3
40001a56:	f7ff fa91 	bl	40000f7c <link_is_empty>
40001a5a:	4603      	mov	r3, r0
40001a5c:	2b00      	cmp	r3, #0
40001a5e:	d00b      	beq.n	40001a78 <_kernel_task_wakeup+0x54>
40001a60:	f06f 0102 	mvn.w	r1, #2
40001a64:	6878      	ldr	r0, [r7, #4]
40001a66:	f7ff fd3b 	bl	400014e0 <task_wakeup_async>
40001a6a:	6938      	ldr	r0, [r7, #16]
40001a6c:	f7ff fd9c 	bl	400015a8 <schedule>
40001a70:	4603      	mov	r3, r0
40001a72:	77fb      	strb	r3, [r7, #31]
40001a74:	2300      	movs	r3, #0
40001a76:	61bb      	str	r3, [r7, #24]
40001a78:	6938      	ldr	r0, [r7, #16]
40001a7a:	f7ff fb21 	bl	400010c0 <cpu_spinlock>
40001a7e:	7ffb      	ldrb	r3, [r7, #31]
40001a80:	2b00      	cmp	r3, #0
40001a82:	d00f      	beq.n	40001aa4 <_kernel_task_wakeup+0x80>
40001a84:	693b      	ldr	r3, [r7, #16]
40001a86:	f8d3 211c 	ldr.w	r2, [r3, #284]	; 0x11c
40001a8a:	ee10 3fb0 	mrc	15, 0, r3, cr0, cr0, {5}
40001a8e:	60fb      	str	r3, [r7, #12]
40001a90:	68fb      	ldr	r3, [r7, #12]
40001a92:	b2db      	uxtb	r3, r3
40001a94:	429a      	cmp	r2, r3
40001a96:	d102      	bne.n	40001a9e <_kernel_task_wakeup+0x7a>
40001a98:	f7ff fdb2 	bl	40001600 <self_request_dispatch>
40001a9c:	e002      	b.n	40001aa4 <_kernel_task_wakeup+0x80>
40001a9e:	6938      	ldr	r0, [r7, #16]
40001aa0:	f7fe fe1a 	bl	400006d8 <ipi_request_dispatch_one>
40001aa4:	697b      	ldr	r3, [r7, #20]
40001aa6:	f003 0380 	and.w	r3, r3, #128	; 0x80
40001aaa:	2b00      	cmp	r3, #0
40001aac:	d100      	bne.n	40001ab0 <_kernel_task_wakeup+0x8c>
40001aae:	b662      	cpsie	i
40001ab0:	69bb      	ldr	r3, [r7, #24]
40001ab2:	4618      	mov	r0, r3
40001ab4:	3720      	adds	r7, #32
40001ab6:	46bd      	mov	sp, r7
40001ab8:	bd80      	pop	{r7, pc}
40001aba:	bf00      	nop

40001abc <_kernel_task_tsleep>:
40001abc:	b590      	push	{r4, r7, lr}
40001abe:	b089      	sub	sp, #36	; 0x24
40001ac0:	af00      	add	r7, sp, #0
40001ac2:	6078      	str	r0, [r7, #4]
40001ac4:	2300      	movs	r3, #0
40001ac6:	77fb      	strb	r3, [r7, #31]
40001ac8:	f3ef 8300 	mrs	r3, CPSR
40001acc:	b672      	cpsid	i
40001ace:	61bb      	str	r3, [r7, #24]
40001ad0:	ee10 3fb0 	mrc	15, 0, r3, cr0, cr0, {5}
40001ad4:	617b      	str	r3, [r7, #20]
40001ad6:	697b      	ldr	r3, [r7, #20]
40001ad8:	b2da      	uxtb	r2, r3
40001ada:	f245 23ac 	movw	r3, #21164	; 0x52ac
40001ade:	f2c4 0300 	movt	r3, #16384	; 0x4000
40001ae2:	f44f 7190 	mov.w	r1, #288	; 0x120
40001ae6:	fb01 f202 	mul.w	r2, r1, r2
40001aea:	4413      	add	r3, r2
40001aec:	681b      	ldr	r3, [r3, #0]
40001aee:	613b      	str	r3, [r7, #16]
40001af0:	693b      	ldr	r3, [r7, #16]
40001af2:	6f5b      	ldr	r3, [r3, #116]	; 0x74
40001af4:	60fb      	str	r3, [r7, #12]
40001af6:	68f8      	ldr	r0, [r7, #12]
40001af8:	f7ff fae2 	bl	400010c0 <cpu_spinlock>
40001afc:	6938      	ldr	r0, [r7, #16]
40001afe:	f7ff fc6b 	bl	400013d8 <task_sleep_stub>
40001b02:	f7ff f8af 	bl	40000c64 <get_tick_count>
40001b06:	460a      	mov	r2, r1
40001b08:	4601      	mov	r1, r0
40001b0a:	687b      	ldr	r3, [r7, #4]
40001b0c:	f04f 0400 	mov.w	r4, #0
40001b10:	185b      	adds	r3, r3, r1
40001b12:	eb44 0402 	adc.w	r4, r4, r2
40001b16:	693a      	ldr	r2, [r7, #16]
40001b18:	e9c2 3418 	strd	r3, r4, [r2, #96]	; 0x60
40001b1c:	6938      	ldr	r0, [r7, #16]
40001b1e:	f7ff fc29 	bl	40001374 <task_add_timeout_queue>
40001b22:	68f8      	ldr	r0, [r7, #12]
40001b24:	f7ff fd40 	bl	400015a8 <schedule>
40001b28:	4603      	mov	r3, r0
40001b2a:	77fb      	strb	r3, [r7, #31]
40001b2c:	68f8      	ldr	r0, [r7, #12]
40001b2e:	f7ff fad3 	bl	400010d8 <cpu_spinunlock>
40001b32:	7ffb      	ldrb	r3, [r7, #31]
40001b34:	2b00      	cmp	r3, #0
40001b36:	d00f      	beq.n	40001b58 <_kernel_task_tsleep+0x9c>
40001b38:	68fb      	ldr	r3, [r7, #12]
40001b3a:	f8d3 211c 	ldr.w	r2, [r3, #284]	; 0x11c
40001b3e:	ee10 3fb0 	mrc	15, 0, r3, cr0, cr0, {5}
40001b42:	60bb      	str	r3, [r7, #8]
40001b44:	68bb      	ldr	r3, [r7, #8]
40001b46:	b2db      	uxtb	r3, r3
40001b48:	429a      	cmp	r2, r3
40001b4a:	d102      	bne.n	40001b52 <_kernel_task_tsleep+0x96>
40001b4c:	f7ff fd58 	bl	40001600 <self_request_dispatch>
40001b50:	e002      	b.n	40001b58 <_kernel_task_tsleep+0x9c>
40001b52:	68f8      	ldr	r0, [r7, #12]
40001b54:	f7fe fdc0 	bl	400006d8 <ipi_request_dispatch_one>
40001b58:	69bb      	ldr	r3, [r7, #24]
40001b5a:	f003 0380 	and.w	r3, r3, #128	; 0x80
40001b5e:	2b00      	cmp	r3, #0
40001b60:	d100      	bne.n	40001b64 <_kernel_task_tsleep+0xa8>
40001b62:	b662      	cpsie	i
40001b64:	693b      	ldr	r3, [r7, #16]
40001b66:	6f1b      	ldr	r3, [r3, #112]	; 0x70
40001b68:	4618      	mov	r0, r3
40001b6a:	3724      	adds	r7, #36	; 0x24
40001b6c:	46bd      	mov	sp, r7
40001b6e:	bd90      	pop	{r4, r7, pc}

40001b70 <_kernel_task_dormant>:
40001b70:	b580      	push	{r7, lr}
40001b72:	b086      	sub	sp, #24
40001b74:	af00      	add	r7, sp, #0
40001b76:	2300      	movs	r3, #0
40001b78:	75fb      	strb	r3, [r7, #23]
40001b7a:	f3ef 8300 	mrs	r3, CPSR
40001b7e:	b672      	cpsid	i
40001b80:	613b      	str	r3, [r7, #16]
40001b82:	ee10 3fb0 	mrc	15, 0, r3, cr0, cr0, {5}
40001b86:	60fb      	str	r3, [r7, #12]
40001b88:	68fb      	ldr	r3, [r7, #12]
40001b8a:	b2da      	uxtb	r2, r3
40001b8c:	f245 23ac 	movw	r3, #21164	; 0x52ac
40001b90:	f2c4 0300 	movt	r3, #16384	; 0x4000
40001b94:	f44f 7190 	mov.w	r1, #288	; 0x120
40001b98:	fb01 f202 	mul.w	r2, r1, r2
40001b9c:	4413      	add	r3, r2
40001b9e:	681b      	ldr	r3, [r3, #0]
40001ba0:	60bb      	str	r3, [r7, #8]
40001ba2:	68bb      	ldr	r3, [r7, #8]
40001ba4:	6f5b      	ldr	r3, [r3, #116]	; 0x74
40001ba6:	607b      	str	r3, [r7, #4]
40001ba8:	6878      	ldr	r0, [r7, #4]
40001baa:	f7ff fa89 	bl	400010c0 <cpu_spinlock>
40001bae:	68b8      	ldr	r0, [r7, #8]
40001bb0:	f7ff fb5e 	bl	40001270 <task_remove_queue>
40001bb4:	68bb      	ldr	r3, [r7, #8]
40001bb6:	4618      	mov	r0, r3
40001bb8:	f7ff f9a0 	bl	40000efc <link_clear>
40001bbc:	68bb      	ldr	r3, [r7, #8]
40001bbe:	2203      	movs	r2, #3
40001bc0:	655a      	str	r2, [r3, #84]	; 0x54
40001bc2:	6878      	ldr	r0, [r7, #4]
40001bc4:	f7ff fcf0 	bl	400015a8 <schedule>
40001bc8:	4603      	mov	r3, r0
40001bca:	75fb      	strb	r3, [r7, #23]
40001bcc:	6878      	ldr	r0, [r7, #4]
40001bce:	f7ff fa83 	bl	400010d8 <cpu_spinunlock>
40001bd2:	7dfb      	ldrb	r3, [r7, #23]
40001bd4:	2b00      	cmp	r3, #0
40001bd6:	d00f      	beq.n	40001bf8 <_kernel_task_dormant+0x88>
40001bd8:	687b      	ldr	r3, [r7, #4]
40001bda:	f8d3 211c 	ldr.w	r2, [r3, #284]	; 0x11c
40001bde:	ee10 3fb0 	mrc	15, 0, r3, cr0, cr0, {5}
40001be2:	603b      	str	r3, [r7, #0]
40001be4:	683b      	ldr	r3, [r7, #0]
40001be6:	b2db      	uxtb	r3, r3
40001be8:	429a      	cmp	r2, r3
40001bea:	d102      	bne.n	40001bf2 <_kernel_task_dormant+0x82>
40001bec:	f7ff fd08 	bl	40001600 <self_request_dispatch>
40001bf0:	e002      	b.n	40001bf8 <_kernel_task_dormant+0x88>
40001bf2:	6878      	ldr	r0, [r7, #4]
40001bf4:	f7fe fd70 	bl	400006d8 <ipi_request_dispatch_one>
40001bf8:	693b      	ldr	r3, [r7, #16]
40001bfa:	f003 0380 	and.w	r3, r3, #128	; 0x80
40001bfe:	2b00      	cmp	r3, #0
40001c00:	d100      	bne.n	40001c04 <_kernel_task_dormant+0x94>
40001c02:	b662      	cpsie	i
40001c04:	e7fe      	b.n	40001c04 <_kernel_task_dormant+0x94>
40001c06:	bf00      	nop

40001c08 <_kernel_task_get_tls>:
40001c08:	b480      	push	{r7}
40001c0a:	b085      	sub	sp, #20
40001c0c:	af00      	add	r7, sp, #0
40001c0e:	6078      	str	r0, [r7, #4]
40001c10:	6039      	str	r1, [r7, #0]
40001c12:	687b      	ldr	r3, [r7, #4]
40001c14:	2b00      	cmp	r3, #0
40001c16:	d10f      	bne.n	40001c38 <_kernel_task_get_tls+0x30>
40001c18:	ee10 3fb0 	mrc	15, 0, r3, cr0, cr0, {5}
40001c1c:	60fb      	str	r3, [r7, #12]
40001c1e:	68fb      	ldr	r3, [r7, #12]
40001c20:	b2da      	uxtb	r2, r3
40001c22:	f245 23ac 	movw	r3, #21164	; 0x52ac
40001c26:	f2c4 0300 	movt	r3, #16384	; 0x4000
40001c2a:	f44f 7190 	mov.w	r1, #288	; 0x120
40001c2e:	fb01 f202 	mul.w	r2, r1, r2
40001c32:	4413      	add	r3, r2
40001c34:	681b      	ldr	r3, [r3, #0]
40001c36:	607b      	str	r3, [r7, #4]
40001c38:	687b      	ldr	r3, [r7, #4]
40001c3a:	6cda      	ldr	r2, [r3, #76]	; 0x4c
40001c3c:	683b      	ldr	r3, [r7, #0]
40001c3e:	601a      	str	r2, [r3, #0]
40001c40:	2300      	movs	r3, #0
40001c42:	4618      	mov	r0, r3
40001c44:	3714      	adds	r7, #20
40001c46:	46bd      	mov	sp, r7
40001c48:	f85d 7b04 	ldr.w	r7, [sp], #4
40001c4c:	4770      	bx	lr
40001c4e:	bf00      	nop

40001c50 <__task_create>:
40001c50:	b580      	push	{r7, lr}
40001c52:	b086      	sub	sp, #24
40001c54:	af00      	add	r7, sp, #0
40001c56:	6078      	str	r0, [r7, #4]
40001c58:	f04f 33ff 	mov.w	r3, #4294967295
40001c5c:	617b      	str	r3, [r7, #20]
40001c5e:	f7ff f9b5 	bl	40000fcc <alloc_task_id>
40001c62:	6138      	str	r0, [r7, #16]
40001c64:	693b      	ldr	r3, [r7, #16]
40001c66:	2b00      	cmp	r3, #0
40001c68:	db11      	blt.n	40001c8e <__task_create+0x3e>
40001c6a:	6938      	ldr	r0, [r7, #16]
40001c6c:	f7ff f9e2 	bl	40001034 <taskid2object>
40001c70:	60f8      	str	r0, [r7, #12]
40001c72:	6879      	ldr	r1, [r7, #4]
40001c74:	68f8      	ldr	r0, [r7, #12]
40001c76:	f7ff fd89 	bl	4000178c <_kernel_task_create>
40001c7a:	6178      	str	r0, [r7, #20]
40001c7c:	697b      	ldr	r3, [r7, #20]
40001c7e:	2b00      	cmp	r3, #0
40001c80:	d102      	bne.n	40001c88 <__task_create+0x38>
40001c82:	693b      	ldr	r3, [r7, #16]
40001c84:	617b      	str	r3, [r7, #20]
40001c86:	e002      	b.n	40001c8e <__task_create+0x3e>
40001c88:	6938      	ldr	r0, [r7, #16]
40001c8a:	f7ff f9e7 	bl	4000105c <free_task_struct>
40001c8e:	697b      	ldr	r3, [r7, #20]
40001c90:	4618      	mov	r0, r3
40001c92:	3718      	adds	r7, #24
40001c94:	46bd      	mov	sp, r7
40001c96:	bd80      	pop	{r7, pc}

40001c98 <__task_active>:
40001c98:	b580      	push	{r7, lr}
40001c9a:	b084      	sub	sp, #16
40001c9c:	af00      	add	r7, sp, #0
40001c9e:	6078      	str	r0, [r7, #4]
40001ca0:	6039      	str	r1, [r7, #0]
40001ca2:	6878      	ldr	r0, [r7, #4]
40001ca4:	f7ff f9c6 	bl	40001034 <taskid2object>
40001ca8:	60f8      	str	r0, [r7, #12]
40001caa:	6839      	ldr	r1, [r7, #0]
40001cac:	68f8      	ldr	r0, [r7, #12]
40001cae:	f7ff fe33 	bl	40001918 <_kernel_task_active>
40001cb2:	4603      	mov	r3, r0
40001cb4:	4618      	mov	r0, r3
40001cb6:	3710      	adds	r7, #16
40001cb8:	46bd      	mov	sp, r7
40001cba:	bd80      	pop	{r7, pc}

40001cbc <__task_sleep>:
40001cbc:	b580      	push	{r7, lr}
40001cbe:	af00      	add	r7, sp, #0
40001cc0:	f7ff fe76 	bl	400019b0 <_kernel_task_sleep>
40001cc4:	4603      	mov	r3, r0
40001cc6:	4618      	mov	r0, r3
40001cc8:	bd80      	pop	{r7, pc}
40001cca:	bf00      	nop

40001ccc <__task_wakeup>:
40001ccc:	b580      	push	{r7, lr}
40001cce:	b084      	sub	sp, #16
40001cd0:	af00      	add	r7, sp, #0
40001cd2:	6078      	str	r0, [r7, #4]
40001cd4:	6878      	ldr	r0, [r7, #4]
40001cd6:	f7ff f9ad 	bl	40001034 <taskid2object>
40001cda:	60f8      	str	r0, [r7, #12]
40001cdc:	68f8      	ldr	r0, [r7, #12]
40001cde:	f7ff fea1 	bl	40001a24 <_kernel_task_wakeup>
40001ce2:	4603      	mov	r3, r0
40001ce4:	4618      	mov	r0, r3
40001ce6:	3710      	adds	r7, #16
40001ce8:	46bd      	mov	sp, r7
40001cea:	bd80      	pop	{r7, pc}

40001cec <__task_tsleep>:
40001cec:	b580      	push	{r7, lr}
40001cee:	b082      	sub	sp, #8
40001cf0:	af00      	add	r7, sp, #0
40001cf2:	6078      	str	r0, [r7, #4]
40001cf4:	6878      	ldr	r0, [r7, #4]
40001cf6:	f7ff fee1 	bl	40001abc <_kernel_task_tsleep>
40001cfa:	4603      	mov	r3, r0
40001cfc:	4618      	mov	r0, r3
40001cfe:	3708      	adds	r7, #8
40001d00:	46bd      	mov	sp, r7
40001d02:	bd80      	pop	{r7, pc}

40001d04 <__task_dormant>:
40001d04:	b580      	push	{r7, lr}
40001d06:	af00      	add	r7, sp, #0
40001d08:	f7ff ff32 	bl	40001b70 <_kernel_task_dormant>
40001d0c:	4603      	mov	r3, r0
40001d0e:	4618      	mov	r0, r3
40001d10:	bd80      	pop	{r7, pc}
40001d12:	bf00      	nop

40001d14 <__task_get_tls>:
40001d14:	b580      	push	{r7, lr}
40001d16:	b084      	sub	sp, #16
40001d18:	af00      	add	r7, sp, #0
40001d1a:	6078      	str	r0, [r7, #4]
40001d1c:	6039      	str	r1, [r7, #0]
40001d1e:	6878      	ldr	r0, [r7, #4]
40001d20:	f7ff f988 	bl	40001034 <taskid2object>
40001d24:	60f8      	str	r0, [r7, #12]
40001d26:	6839      	ldr	r1, [r7, #0]
40001d28:	68f8      	ldr	r0, [r7, #12]
40001d2a:	f7ff ff6d 	bl	40001c08 <_kernel_task_get_tls>
40001d2e:	4603      	mov	r3, r0
40001d30:	4618      	mov	r0, r3
40001d32:	3710      	adds	r7, #16
40001d34:	46bd      	mov	sp, r7
40001d36:	bd80      	pop	{r7, pc}

40001d38 <c_handler>:
40001d38:	b590      	push	{r4, r7, lr}
40001d3a:	b089      	sub	sp, #36	; 0x24
40001d3c:	af02      	add	r7, sp, #8
40001d3e:	60f8      	str	r0, [r7, #12]
40001d40:	60b9      	str	r1, [r7, #8]
40001d42:	607a      	str	r2, [r7, #4]
40001d44:	f242 030c 	movw	r3, #8204	; 0x200c
40001d48:	f2c0 13c8 	movt	r3, #456	; 0x1c8
40001d4c:	681b      	ldr	r3, [r3, #0]
40001d4e:	617b      	str	r3, [r7, #20]
40001d50:	697b      	ldr	r3, [r7, #20]
40001d52:	f3c3 0309 	ubfx	r3, r3, #0, #10
40001d56:	613b      	str	r3, [r7, #16]
40001d58:	697b      	ldr	r3, [r7, #20]
40001d5a:	9300      	str	r3, [sp, #0]
40001d5c:	687b      	ldr	r3, [r7, #4]
40001d5e:	68ba      	ldr	r2, [r7, #8]
40001d60:	68f9      	ldr	r1, [r7, #12]
40001d62:	f643 6048 	movw	r0, #15944	; 0x3e48
40001d66:	f2c4 0000 	movt	r0, #16384	; 0x4000
40001d6a:	f001 fbe3 	bl	40003534 <tprintf>
40001d6e:	693b      	ldr	r3, [r7, #16]
40001d70:	2bff      	cmp	r3, #255	; 0xff
40001d72:	d81a      	bhi.n	40001daa <c_handler+0x72>
40001d74:	f244 2360 	movw	r3, #16992	; 0x4260
40001d78:	f2c4 0300 	movt	r3, #16384	; 0x4000
40001d7c:	693a      	ldr	r2, [r7, #16]
40001d7e:	f853 3032 	ldr.w	r3, [r3, r2, lsl #3]
40001d82:	2b00      	cmp	r3, #0
40001d84:	d011      	beq.n	40001daa <c_handler+0x72>
40001d86:	f244 2360 	movw	r3, #16992	; 0x4260
40001d8a:	f2c4 0300 	movt	r3, #16384	; 0x4000
40001d8e:	693a      	ldr	r2, [r7, #16]
40001d90:	f853 4032 	ldr.w	r4, [r3, r2, lsl #3]
40001d94:	f244 2260 	movw	r2, #16992	; 0x4260
40001d98:	f2c4 0200 	movt	r2, #16384	; 0x4000
40001d9c:	693b      	ldr	r3, [r7, #16]
40001d9e:	00db      	lsls	r3, r3, #3
40001da0:	4413      	add	r3, r2
40001da2:	685b      	ldr	r3, [r3, #4]
40001da4:	4619      	mov	r1, r3
40001da6:	6938      	ldr	r0, [r7, #16]
40001da8:	47a0      	blx	r4
40001daa:	f242 0310 	movw	r3, #8208	; 0x2010
40001dae:	f2c0 13c8 	movt	r3, #456	; 0x1c8
40001db2:	697a      	ldr	r2, [r7, #20]
40001db4:	601a      	str	r2, [r3, #0]
40001db6:	371c      	adds	r7, #28
40001db8:	46bd      	mov	sp, r7
40001dba:	bd90      	pop	{r4, r7, pc}

40001dbc <__irq_add_handler>:
40001dbc:	b480      	push	{r7}
40001dbe:	b085      	sub	sp, #20
40001dc0:	af00      	add	r7, sp, #0
40001dc2:	60f8      	str	r0, [r7, #12]
40001dc4:	60b9      	str	r1, [r7, #8]
40001dc6:	607a      	str	r2, [r7, #4]
40001dc8:	68fb      	ldr	r3, [r7, #12]
40001dca:	2bff      	cmp	r3, #255	; 0xff
40001dcc:	d810      	bhi.n	40001df0 <__irq_add_handler+0x34>
40001dce:	f244 2360 	movw	r3, #16992	; 0x4260
40001dd2:	f2c4 0300 	movt	r3, #16384	; 0x4000
40001dd6:	68fa      	ldr	r2, [r7, #12]
40001dd8:	68b9      	ldr	r1, [r7, #8]
40001dda:	f843 1032 	str.w	r1, [r3, r2, lsl #3]
40001dde:	f244 2260 	movw	r2, #16992	; 0x4260
40001de2:	f2c4 0200 	movt	r2, #16384	; 0x4000
40001de6:	68fb      	ldr	r3, [r7, #12]
40001de8:	00db      	lsls	r3, r3, #3
40001dea:	4413      	add	r3, r2
40001dec:	687a      	ldr	r2, [r7, #4]
40001dee:	605a      	str	r2, [r3, #4]
40001df0:	3714      	adds	r7, #20
40001df2:	46bd      	mov	sp, r7
40001df4:	f85d 7b04 	ldr.w	r7, [sp], #4
40001df8:	4770      	bx	lr
40001dfa:	bf00      	nop

40001dfc <__irq_set_enable>:
40001dfc:	b480      	push	{r7}
40001dfe:	b085      	sub	sp, #20
40001e00:	af00      	add	r7, sp, #0
40001e02:	6078      	str	r0, [r7, #4]
40001e04:	6039      	str	r1, [r7, #0]
40001e06:	687b      	ldr	r3, [r7, #4]
40001e08:	095b      	lsrs	r3, r3, #5
40001e0a:	60fb      	str	r3, [r7, #12]
40001e0c:	687b      	ldr	r3, [r7, #4]
40001e0e:	f003 031f 	and.w	r3, r3, #31
40001e12:	60bb      	str	r3, [r7, #8]
40001e14:	683b      	ldr	r3, [r7, #0]
40001e16:	2b01      	cmp	r3, #1
40001e18:	d10c      	bne.n	40001e34 <__irq_set_enable+0x38>
40001e1a:	68fb      	ldr	r3, [r7, #12]
40001e1c:	f503 03e4 	add.w	r3, r3, #7471104	; 0x720000
40001e20:	f503 6388 	add.w	r3, r3, #1088	; 0x440
40001e24:	009b      	lsls	r3, r3, #2
40001e26:	4619      	mov	r1, r3
40001e28:	68bb      	ldr	r3, [r7, #8]
40001e2a:	2201      	movs	r2, #1
40001e2c:	fa02 f303 	lsl.w	r3, r2, r3
40001e30:	600b      	str	r3, [r1, #0]
40001e32:	e00b      	b.n	40001e4c <__irq_set_enable+0x50>
40001e34:	68fb      	ldr	r3, [r7, #12]
40001e36:	f503 03e4 	add.w	r3, r3, #7471104	; 0x720000
40001e3a:	f503 638c 	add.w	r3, r3, #1120	; 0x460
40001e3e:	009b      	lsls	r3, r3, #2
40001e40:	4619      	mov	r1, r3
40001e42:	68bb      	ldr	r3, [r7, #8]
40001e44:	2201      	movs	r2, #1
40001e46:	fa02 f303 	lsl.w	r3, r2, r3
40001e4a:	600b      	str	r3, [r1, #0]
40001e4c:	3714      	adds	r7, #20
40001e4e:	46bd      	mov	sp, r7
40001e50:	f85d 7b04 	ldr.w	r7, [sp], #4
40001e54:	4770      	bx	lr
40001e56:	bf00      	nop

40001e58 <__irq_get_enable>:
40001e58:	b480      	push	{r7}
40001e5a:	b087      	sub	sp, #28
40001e5c:	af00      	add	r7, sp, #0
40001e5e:	6078      	str	r0, [r7, #4]
40001e60:	687b      	ldr	r3, [r7, #4]
40001e62:	095b      	lsrs	r3, r3, #5
40001e64:	617b      	str	r3, [r7, #20]
40001e66:	687b      	ldr	r3, [r7, #4]
40001e68:	f003 031f 	and.w	r3, r3, #31
40001e6c:	613b      	str	r3, [r7, #16]
40001e6e:	697b      	ldr	r3, [r7, #20]
40001e70:	f503 03e4 	add.w	r3, r3, #7471104	; 0x720000
40001e74:	f503 638c 	add.w	r3, r3, #1120	; 0x460
40001e78:	009b      	lsls	r3, r3, #2
40001e7a:	681b      	ldr	r3, [r3, #0]
40001e7c:	693a      	ldr	r2, [r7, #16]
40001e7e:	2101      	movs	r1, #1
40001e80:	fa01 f202 	lsl.w	r2, r1, r2
40001e84:	4013      	ands	r3, r2
40001e86:	2b00      	cmp	r3, #0
40001e88:	bf14      	ite	ne
40001e8a:	2301      	movne	r3, #1
40001e8c:	2300      	moveq	r3, #0
40001e8e:	b2db      	uxtb	r3, r3
40001e90:	60fb      	str	r3, [r7, #12]
40001e92:	68fb      	ldr	r3, [r7, #12]
40001e94:	4618      	mov	r0, r3
40001e96:	371c      	adds	r7, #28
40001e98:	46bd      	mov	sp, r7
40001e9a:	f85d 7b04 	ldr.w	r7, [sp], #4
40001e9e:	4770      	bx	lr

40001ea0 <arch_irq_init>:
40001ea0:	b580      	push	{r7, lr}
40001ea2:	b084      	sub	sp, #16
40001ea4:	af00      	add	r7, sp, #0
40001ea6:	6078      	str	r0, [r7, #4]
40001ea8:	687b      	ldr	r3, [r7, #4]
40001eaa:	2b00      	cmp	r3, #0
40001eac:	f040 8097 	bne.w	40001fde <arch_irq_init+0x13e>
40001eb0:	f241 0304 	movw	r3, #4100	; 0x1004
40001eb4:	f2c0 13c8 	movt	r3, #456	; 0x1c8
40001eb8:	681b      	ldr	r3, [r3, #0]
40001eba:	f003 031f 	and.w	r3, r3, #31
40001ebe:	015b      	lsls	r3, r3, #5
40001ec0:	60bb      	str	r3, [r7, #8]
40001ec2:	68b9      	ldr	r1, [r7, #8]
40001ec4:	f643 6074 	movw	r0, #15988	; 0x3e74
40001ec8:	f2c4 0000 	movt	r0, #16384	; 0x4000
40001ecc:	f001 fb32 	bl	40003534 <tprintf>
40001ed0:	f44f 5380 	mov.w	r3, #4096	; 0x1000
40001ed4:	f2c0 13c8 	movt	r3, #456	; 0x1c8
40001ed8:	2200      	movs	r2, #0
40001eda:	601a      	str	r2, [r3, #0]
40001edc:	2300      	movs	r3, #0
40001ede:	60fb      	str	r3, [r7, #12]
40001ee0:	e00c      	b.n	40001efc <arch_irq_init+0x5c>
40001ee2:	68fb      	ldr	r3, [r7, #12]
40001ee4:	009b      	lsls	r3, r3, #2
40001ee6:	f103 73e4 	add.w	r3, r3, #29884416	; 0x1c80000
40001eea:	f503 538c 	add.w	r3, r3, #4480	; 0x1180
40001eee:	461a      	mov	r2, r3
40001ef0:	f04f 33ff 	mov.w	r3, #4294967295
40001ef4:	6013      	str	r3, [r2, #0]
40001ef6:	68fb      	ldr	r3, [r7, #12]
40001ef8:	3301      	adds	r3, #1
40001efa:	60fb      	str	r3, [r7, #12]
40001efc:	68fa      	ldr	r2, [r7, #12]
40001efe:	68bb      	ldr	r3, [r7, #8]
40001f00:	095b      	lsrs	r3, r3, #5
40001f02:	429a      	cmp	r2, r3
40001f04:	d3ed      	bcc.n	40001ee2 <arch_irq_init+0x42>
40001f06:	2300      	movs	r3, #0
40001f08:	60fb      	str	r3, [r7, #12]
40001f0a:	e00c      	b.n	40001f26 <arch_irq_init+0x86>
40001f0c:	68fb      	ldr	r3, [r7, #12]
40001f0e:	009b      	lsls	r3, r3, #2
40001f10:	f103 73e4 	add.w	r3, r3, #29884416	; 0x1c80000
40001f14:	f503 5394 	add.w	r3, r3, #4736	; 0x1280
40001f18:	461a      	mov	r2, r3
40001f1a:	f04f 33ff 	mov.w	r3, #4294967295
40001f1e:	6013      	str	r3, [r2, #0]
40001f20:	68fb      	ldr	r3, [r7, #12]
40001f22:	3301      	adds	r3, #1
40001f24:	60fb      	str	r3, [r7, #12]
40001f26:	68fa      	ldr	r2, [r7, #12]
40001f28:	68bb      	ldr	r3, [r7, #8]
40001f2a:	095b      	lsrs	r3, r3, #5
40001f2c:	429a      	cmp	r2, r3
40001f2e:	d3ed      	bcc.n	40001f0c <arch_irq_init+0x6c>
40001f30:	2300      	movs	r3, #0
40001f32:	60fb      	str	r3, [r7, #12]
40001f34:	e00b      	b.n	40001f4e <arch_irq_init+0xae>
40001f36:	68fb      	ldr	r3, [r7, #12]
40001f38:	009b      	lsls	r3, r3, #2
40001f3a:	f103 73e4 	add.w	r3, r3, #29884416	; 0x1c80000
40001f3e:	f503 53a0 	add.w	r3, r3, #5120	; 0x1400
40001f42:	461a      	mov	r2, r3
40001f44:	2300      	movs	r3, #0
40001f46:	6013      	str	r3, [r2, #0]
40001f48:	68fb      	ldr	r3, [r7, #12]
40001f4a:	3301      	adds	r3, #1
40001f4c:	60fb      	str	r3, [r7, #12]
40001f4e:	68fa      	ldr	r2, [r7, #12]
40001f50:	68bb      	ldr	r3, [r7, #8]
40001f52:	089b      	lsrs	r3, r3, #2
40001f54:	429a      	cmp	r2, r3
40001f56:	d3ee      	bcc.n	40001f36 <arch_irq_init+0x96>
40001f58:	2300      	movs	r3, #0
40001f5a:	60fb      	str	r3, [r7, #12]
40001f5c:	e00b      	b.n	40001f76 <arch_irq_init+0xd6>
40001f5e:	68fb      	ldr	r3, [r7, #12]
40001f60:	009b      	lsls	r3, r3, #2
40001f62:	f103 73e4 	add.w	r3, r3, #29884416	; 0x1c80000
40001f66:	f503 53e0 	add.w	r3, r3, #7168	; 0x1c00
40001f6a:	461a      	mov	r2, r3
40001f6c:	2300      	movs	r3, #0
40001f6e:	6013      	str	r3, [r2, #0]
40001f70:	68fb      	ldr	r3, [r7, #12]
40001f72:	3301      	adds	r3, #1
40001f74:	60fb      	str	r3, [r7, #12]
40001f76:	68fb      	ldr	r3, [r7, #12]
40001f78:	2b07      	cmp	r3, #7
40001f7a:	ddf0      	ble.n	40001f5e <arch_irq_init+0xbe>
40001f7c:	2308      	movs	r3, #8
40001f7e:	60fb      	str	r3, [r7, #12]
40001f80:	e00c      	b.n	40001f9c <arch_irq_init+0xfc>
40001f82:	68fb      	ldr	r3, [r7, #12]
40001f84:	009b      	lsls	r3, r3, #2
40001f86:	f103 73e4 	add.w	r3, r3, #29884416	; 0x1c80000
40001f8a:	f503 53c0 	add.w	r3, r3, #6144	; 0x1800
40001f8e:	461a      	mov	r2, r3
40001f90:	f04f 3301 	mov.w	r3, #16843009	; 0x1010101
40001f94:	6013      	str	r3, [r2, #0]
40001f96:	68fb      	ldr	r3, [r7, #12]
40001f98:	3301      	adds	r3, #1
40001f9a:	60fb      	str	r3, [r7, #12]
40001f9c:	68fa      	ldr	r2, [r7, #12]
40001f9e:	68bb      	ldr	r3, [r7, #8]
40001fa0:	089b      	lsrs	r3, r3, #2
40001fa2:	429a      	cmp	r2, r3
40001fa4:	d3ed      	bcc.n	40001f82 <arch_irq_init+0xe2>
40001fa6:	2302      	movs	r3, #2
40001fa8:	60fb      	str	r3, [r7, #12]
40001faa:	e00c      	b.n	40001fc6 <arch_irq_init+0x126>
40001fac:	68fb      	ldr	r3, [r7, #12]
40001fae:	009b      	lsls	r3, r3, #2
40001fb0:	f103 73e4 	add.w	r3, r3, #29884416	; 0x1c80000
40001fb4:	f503 53e0 	add.w	r3, r3, #7168	; 0x1c00
40001fb8:	461a      	mov	r2, r3
40001fba:	f04f 3355 	mov.w	r3, #1431655765	; 0x55555555
40001fbe:	6013      	str	r3, [r2, #0]
40001fc0:	68fb      	ldr	r3, [r7, #12]
40001fc2:	3301      	adds	r3, #1
40001fc4:	60fb      	str	r3, [r7, #12]
40001fc6:	68fa      	ldr	r2, [r7, #12]
40001fc8:	68bb      	ldr	r3, [r7, #8]
40001fca:	091b      	lsrs	r3, r3, #4
40001fcc:	429a      	cmp	r2, r3
40001fce:	d3ed      	bcc.n	40001fac <arch_irq_init+0x10c>
40001fd0:	f44f 5380 	mov.w	r3, #4096	; 0x1000
40001fd4:	f2c0 13c8 	movt	r3, #456	; 0x1c8
40001fd8:	2201      	movs	r2, #1
40001fda:	601a      	str	r2, [r3, #0]
40001fdc:	e031      	b.n	40002042 <arch_irq_init+0x1a2>
40001fde:	f44f 538c 	mov.w	r3, #4480	; 0x1180
40001fe2:	f2c0 13c8 	movt	r3, #456	; 0x1c8
40001fe6:	f04f 32ff 	mov.w	r2, #4294967295
40001fea:	601a      	str	r2, [r3, #0]
40001fec:	f44f 5394 	mov.w	r3, #4736	; 0x1280
40001ff0:	f2c0 13c8 	movt	r3, #456	; 0x1c8
40001ff4:	f04f 32ff 	mov.w	r2, #4294967295
40001ff8:	601a      	str	r2, [r3, #0]
40001ffa:	2300      	movs	r3, #0
40001ffc:	60fb      	str	r3, [r7, #12]
40001ffe:	e00b      	b.n	40002018 <arch_irq_init+0x178>
40002000:	68fb      	ldr	r3, [r7, #12]
40002002:	009b      	lsls	r3, r3, #2
40002004:	f103 73e4 	add.w	r3, r3, #29884416	; 0x1c80000
40002008:	f503 53a0 	add.w	r3, r3, #5120	; 0x1400
4000200c:	461a      	mov	r2, r3
4000200e:	2300      	movs	r3, #0
40002010:	6013      	str	r3, [r2, #0]
40002012:	68fb      	ldr	r3, [r7, #12]
40002014:	3301      	adds	r3, #1
40002016:	60fb      	str	r3, [r7, #12]
40002018:	68fb      	ldr	r3, [r7, #12]
4000201a:	2b07      	cmp	r3, #7
4000201c:	ddf0      	ble.n	40002000 <arch_irq_init+0x160>
4000201e:	2300      	movs	r3, #0
40002020:	60fb      	str	r3, [r7, #12]
40002022:	e00b      	b.n	4000203c <arch_irq_init+0x19c>
40002024:	68fb      	ldr	r3, [r7, #12]
40002026:	009b      	lsls	r3, r3, #2
40002028:	f103 73e4 	add.w	r3, r3, #29884416	; 0x1c80000
4000202c:	f503 53e0 	add.w	r3, r3, #7168	; 0x1c00
40002030:	461a      	mov	r2, r3
40002032:	2300      	movs	r3, #0
40002034:	6013      	str	r3, [r2, #0]
40002036:	68fb      	ldr	r3, [r7, #12]
40002038:	3301      	adds	r3, #1
4000203a:	60fb      	str	r3, [r7, #12]
4000203c:	68fb      	ldr	r3, [r7, #12]
4000203e:	2b07      	cmp	r3, #7
40002040:	ddf0      	ble.n	40002024 <arch_irq_init+0x184>
40002042:	f44f 5300 	mov.w	r3, #8192	; 0x2000
40002046:	f2c0 13c8 	movt	r3, #456	; 0x1c8
4000204a:	2200      	movs	r2, #0
4000204c:	601a      	str	r2, [r3, #0]
4000204e:	f242 0304 	movw	r3, #8196	; 0x2004
40002052:	f2c0 13c8 	movt	r3, #456	; 0x1c8
40002056:	22ff      	movs	r2, #255	; 0xff
40002058:	601a      	str	r2, [r3, #0]
4000205a:	f242 0308 	movw	r3, #8200	; 0x2008
4000205e:	f2c0 13c8 	movt	r3, #456	; 0x1c8
40002062:	2203      	movs	r2, #3
40002064:	601a      	str	r2, [r3, #0]
40002066:	f44f 5300 	mov.w	r3, #8192	; 0x2000
4000206a:	f2c0 13c8 	movt	r3, #456	; 0x1c8
4000206e:	2201      	movs	r2, #1
40002070:	601a      	str	r2, [r3, #0]
40002072:	3710      	adds	r7, #16
40002074:	46bd      	mov	sp, r7
40002076:	bd80      	pop	{r7, pc}

40002078 <st_malloc_init>:
40002078:	b480      	push	{r7}
4000207a:	b083      	sub	sp, #12
4000207c:	af00      	add	r7, sp, #0
4000207e:	6078      	str	r0, [r7, #4]
40002080:	6039      	str	r1, [r7, #0]
40002082:	f644 2360 	movw	r3, #19040	; 0x4a60
40002086:	f2c4 0300 	movt	r3, #16384	; 0x4000
4000208a:	687a      	ldr	r2, [r7, #4]
4000208c:	601a      	str	r2, [r3, #0]
4000208e:	687a      	ldr	r2, [r7, #4]
40002090:	683b      	ldr	r3, [r7, #0]
40002092:	441a      	add	r2, r3
40002094:	f644 2364 	movw	r3, #19044	; 0x4a64
40002098:	f2c4 0300 	movt	r3, #16384	; 0x4000
4000209c:	601a      	str	r2, [r3, #0]
4000209e:	370c      	adds	r7, #12
400020a0:	46bd      	mov	sp, r7
400020a2:	f85d 7b04 	ldr.w	r7, [sp], #4
400020a6:	4770      	bx	lr

400020a8 <st_malloc_align>:
400020a8:	b480      	push	{r7}
400020aa:	b085      	sub	sp, #20
400020ac:	af00      	add	r7, sp, #0
400020ae:	6078      	str	r0, [r7, #4]
400020b0:	6039      	str	r1, [r7, #0]
400020b2:	f644 2360 	movw	r3, #19040	; 0x4a60
400020b6:	f2c4 0300 	movt	r3, #16384	; 0x4000
400020ba:	681b      	ldr	r3, [r3, #0]
400020bc:	461a      	mov	r2, r3
400020be:	683b      	ldr	r3, [r7, #0]
400020c0:	4413      	add	r3, r2
400020c2:	1e5a      	subs	r2, r3, #1
400020c4:	683b      	ldr	r3, [r7, #0]
400020c6:	425b      	negs	r3, r3
400020c8:	4013      	ands	r3, r2
400020ca:	60fb      	str	r3, [r7, #12]
400020cc:	68fa      	ldr	r2, [r7, #12]
400020ce:	687b      	ldr	r3, [r7, #4]
400020d0:	441a      	add	r2, r3
400020d2:	f644 2360 	movw	r3, #19040	; 0x4a60
400020d6:	f2c4 0300 	movt	r3, #16384	; 0x4000
400020da:	601a      	str	r2, [r3, #0]
400020dc:	f644 2364 	movw	r3, #19044	; 0x4a64
400020e0:	f2c4 0300 	movt	r3, #16384	; 0x4000
400020e4:	681a      	ldr	r2, [r3, #0]
400020e6:	f644 2360 	movw	r3, #19040	; 0x4a60
400020ea:	f2c4 0300 	movt	r3, #16384	; 0x4000
400020ee:	681b      	ldr	r3, [r3, #0]
400020f0:	429a      	cmp	r2, r3
400020f2:	d801      	bhi.n	400020f8 <st_malloc_align+0x50>
400020f4:	2300      	movs	r3, #0
400020f6:	60fb      	str	r3, [r7, #12]
400020f8:	68fb      	ldr	r3, [r7, #12]
400020fa:	4618      	mov	r0, r3
400020fc:	3714      	adds	r7, #20
400020fe:	46bd      	mov	sp, r7
40002100:	f85d 7b04 	ldr.w	r7, [sp], #4
40002104:	4770      	bx	lr
40002106:	bf00      	nop

40002108 <st_malloc_normalize>:
40002108:	b580      	push	{r7, lr}
4000210a:	af00      	add	r7, sp, #0
4000210c:	f644 2360 	movw	r3, #19040	; 0x4a60
40002110:	f2c4 0300 	movt	r3, #16384	; 0x4000
40002114:	681a      	ldr	r2, [r3, #0]
40002116:	f644 2364 	movw	r3, #19044	; 0x4a64
4000211a:	f2c4 0300 	movt	r3, #16384	; 0x4000
4000211e:	681b      	ldr	r3, [r3, #0]
40002120:	4619      	mov	r1, r3
40002122:	f644 2360 	movw	r3, #19040	; 0x4a60
40002126:	f2c4 0300 	movt	r3, #16384	; 0x4000
4000212a:	681b      	ldr	r3, [r3, #0]
4000212c:	1acb      	subs	r3, r1, r3
4000212e:	4619      	mov	r1, r3
40002130:	4610      	mov	r0, r2
40002132:	f000 f861 	bl	400021f8 <sys_malloc_add_block>
40002136:	f644 2364 	movw	r3, #19044	; 0x4a64
4000213a:	f2c4 0300 	movt	r3, #16384	; 0x4000
4000213e:	2200      	movs	r2, #0
40002140:	601a      	str	r2, [r3, #0]
40002142:	f644 2364 	movw	r3, #19044	; 0x4a64
40002146:	f2c4 0300 	movt	r3, #16384	; 0x4000
4000214a:	681a      	ldr	r2, [r3, #0]
4000214c:	f644 2360 	movw	r3, #19040	; 0x4a60
40002150:	f2c4 0300 	movt	r3, #16384	; 0x4000
40002154:	601a      	str	r2, [r3, #0]
40002156:	bd80      	pop	{r7, pc}

40002158 <link_clear>:
40002158:	b480      	push	{r7}
4000215a:	b083      	sub	sp, #12
4000215c:	af00      	add	r7, sp, #0
4000215e:	6078      	str	r0, [r7, #4]
40002160:	687b      	ldr	r3, [r7, #4]
40002162:	687a      	ldr	r2, [r7, #4]
40002164:	605a      	str	r2, [r3, #4]
40002166:	687b      	ldr	r3, [r7, #4]
40002168:	685a      	ldr	r2, [r3, #4]
4000216a:	687b      	ldr	r3, [r7, #4]
4000216c:	601a      	str	r2, [r3, #0]
4000216e:	370c      	adds	r7, #12
40002170:	46bd      	mov	sp, r7
40002172:	f85d 7b04 	ldr.w	r7, [sp], #4
40002176:	4770      	bx	lr

40002178 <link_remove>:
40002178:	b480      	push	{r7}
4000217a:	b085      	sub	sp, #20
4000217c:	af00      	add	r7, sp, #0
4000217e:	6078      	str	r0, [r7, #4]
40002180:	687b      	ldr	r3, [r7, #4]
40002182:	685b      	ldr	r3, [r3, #4]
40002184:	60fb      	str	r3, [r7, #12]
40002186:	687b      	ldr	r3, [r7, #4]
40002188:	681b      	ldr	r3, [r3, #0]
4000218a:	60bb      	str	r3, [r7, #8]
4000218c:	68fb      	ldr	r3, [r7, #12]
4000218e:	68ba      	ldr	r2, [r7, #8]
40002190:	601a      	str	r2, [r3, #0]
40002192:	68bb      	ldr	r3, [r7, #8]
40002194:	68fa      	ldr	r2, [r7, #12]
40002196:	605a      	str	r2, [r3, #4]
40002198:	3714      	adds	r7, #20
4000219a:	46bd      	mov	sp, r7
4000219c:	f85d 7b04 	ldr.w	r7, [sp], #4
400021a0:	4770      	bx	lr
400021a2:	bf00      	nop

400021a4 <link_add_last>:
400021a4:	b480      	push	{r7}
400021a6:	b085      	sub	sp, #20
400021a8:	af00      	add	r7, sp, #0
400021aa:	6078      	str	r0, [r7, #4]
400021ac:	6039      	str	r1, [r7, #0]
400021ae:	687b      	ldr	r3, [r7, #4]
400021b0:	685b      	ldr	r3, [r3, #4]
400021b2:	60fb      	str	r3, [r7, #12]
400021b4:	683b      	ldr	r3, [r7, #0]
400021b6:	687a      	ldr	r2, [r7, #4]
400021b8:	601a      	str	r2, [r3, #0]
400021ba:	683b      	ldr	r3, [r7, #0]
400021bc:	68fa      	ldr	r2, [r7, #12]
400021be:	605a      	str	r2, [r3, #4]
400021c0:	687b      	ldr	r3, [r7, #4]
400021c2:	683a      	ldr	r2, [r7, #0]
400021c4:	605a      	str	r2, [r3, #4]
400021c6:	68fb      	ldr	r3, [r7, #12]
400021c8:	683a      	ldr	r2, [r7, #0]
400021ca:	601a      	str	r2, [r3, #0]
400021cc:	3714      	adds	r7, #20
400021ce:	46bd      	mov	sp, r7
400021d0:	f85d 7b04 	ldr.w	r7, [sp], #4
400021d4:	4770      	bx	lr
400021d6:	bf00      	nop

400021d8 <sys_malloc_init>:
400021d8:	b580      	push	{r7, lr}
400021da:	af00      	add	r7, sp, #0
400021dc:	f644 2068 	movw	r0, #19048	; 0x4a68
400021e0:	f2c4 0000 	movt	r0, #16384	; 0x4000
400021e4:	f7ff ffb8 	bl	40002158 <link_clear>
400021e8:	f644 2070 	movw	r0, #19056	; 0x4a70
400021ec:	f2c4 0000 	movt	r0, #16384	; 0x4000
400021f0:	f000 fb8e 	bl	40002910 <_kernel_mutex_create>
400021f4:	bd80      	pop	{r7, pc}
400021f6:	bf00      	nop

400021f8 <sys_malloc_add_block>:
400021f8:	b580      	push	{r7, lr}
400021fa:	b086      	sub	sp, #24
400021fc:	af00      	add	r7, sp, #0
400021fe:	6078      	str	r0, [r7, #4]
40002200:	6039      	str	r1, [r7, #0]
40002202:	687a      	ldr	r2, [r7, #4]
40002204:	683b      	ldr	r3, [r7, #0]
40002206:	4413      	add	r3, r2
40002208:	617b      	str	r3, [r7, #20]
4000220a:	687b      	ldr	r3, [r7, #4]
4000220c:	3304      	adds	r3, #4
4000220e:	3303      	adds	r3, #3
40002210:	f023 0303 	bic.w	r3, r3, #3
40002214:	607b      	str	r3, [r7, #4]
40002216:	697b      	ldr	r3, [r7, #20]
40002218:	3b04      	subs	r3, #4
4000221a:	f023 0303 	bic.w	r3, r3, #3
4000221e:	617b      	str	r3, [r7, #20]
40002220:	697a      	ldr	r2, [r7, #20]
40002222:	687b      	ldr	r3, [r7, #4]
40002224:	1ad3      	subs	r3, r2, r3
40002226:	603b      	str	r3, [r7, #0]
40002228:	697a      	ldr	r2, [r7, #20]
4000222a:	687b      	ldr	r3, [r7, #4]
4000222c:	429a      	cmp	r2, r3
4000222e:	d302      	bcc.n	40002236 <sys_malloc_add_block+0x3e>
40002230:	683b      	ldr	r3, [r7, #0]
40002232:	2b17      	cmp	r3, #23
40002234:	d800      	bhi.n	40002238 <sys_malloc_add_block+0x40>
40002236:	e040      	b.n	400022ba <sys_malloc_add_block+0xc2>
40002238:	f644 2380 	movw	r3, #19072	; 0x4a80
4000223c:	f2c4 0300 	movt	r3, #16384	; 0x4000
40002240:	687a      	ldr	r2, [r7, #4]
40002242:	601a      	str	r2, [r3, #0]
40002244:	f644 2384 	movw	r3, #19076	; 0x4a84
40002248:	f2c4 0300 	movt	r3, #16384	; 0x4000
4000224c:	697a      	ldr	r2, [r7, #20]
4000224e:	601a      	str	r2, [r3, #0]
40002250:	687b      	ldr	r3, [r7, #4]
40002252:	3b04      	subs	r3, #4
40002254:	697a      	ldr	r2, [r7, #20]
40002256:	f24a 515a 	movw	r1, #42330	; 0xa55a
4000225a:	8011      	strh	r1, [r2, #0]
4000225c:	697a      	ldr	r2, [r7, #20]
4000225e:	8812      	ldrh	r2, [r2, #0]
40002260:	801a      	strh	r2, [r3, #0]
40002262:	687b      	ldr	r3, [r7, #4]
40002264:	3b04      	subs	r3, #4
40002266:	697a      	ldr	r2, [r7, #20]
40002268:	2102      	movs	r1, #2
4000226a:	8051      	strh	r1, [r2, #2]
4000226c:	697a      	ldr	r2, [r7, #20]
4000226e:	8852      	ldrh	r2, [r2, #2]
40002270:	805a      	strh	r2, [r3, #2]
40002272:	687b      	ldr	r3, [r7, #4]
40002274:	613b      	str	r3, [r7, #16]
40002276:	697b      	ldr	r3, [r7, #20]
40002278:	3b08      	subs	r3, #8
4000227a:	60fb      	str	r3, [r7, #12]
4000227c:	68fb      	ldr	r3, [r7, #12]
4000227e:	f24a 525a 	movw	r2, #42330	; 0xa55a
40002282:	809a      	strh	r2, [r3, #4]
40002284:	68fb      	ldr	r3, [r7, #12]
40002286:	889a      	ldrh	r2, [r3, #4]
40002288:	693b      	ldr	r3, [r7, #16]
4000228a:	801a      	strh	r2, [r3, #0]
4000228c:	68fb      	ldr	r3, [r7, #12]
4000228e:	2201      	movs	r2, #1
40002290:	80da      	strh	r2, [r3, #6]
40002292:	68fb      	ldr	r3, [r7, #12]
40002294:	88da      	ldrh	r2, [r3, #6]
40002296:	693b      	ldr	r3, [r7, #16]
40002298:	805a      	strh	r2, [r3, #2]
4000229a:	68fb      	ldr	r3, [r7, #12]
4000229c:	683a      	ldr	r2, [r7, #0]
4000229e:	601a      	str	r2, [r3, #0]
400022a0:	68fb      	ldr	r3, [r7, #12]
400022a2:	681a      	ldr	r2, [r3, #0]
400022a4:	693b      	ldr	r3, [r7, #16]
400022a6:	605a      	str	r2, [r3, #4]
400022a8:	693b      	ldr	r3, [r7, #16]
400022aa:	3308      	adds	r3, #8
400022ac:	4619      	mov	r1, r3
400022ae:	f644 2068 	movw	r0, #19048	; 0x4a68
400022b2:	f2c4 0000 	movt	r0, #16384	; 0x4000
400022b6:	f7ff ff75 	bl	400021a4 <link_add_last>
400022ba:	3718      	adds	r7, #24
400022bc:	46bd      	mov	sp, r7
400022be:	bd80      	pop	{r7, pc}

400022c0 <mb_alloc>:
400022c0:	b580      	push	{r7, lr}
400022c2:	b088      	sub	sp, #32
400022c4:	af00      	add	r7, sp, #0
400022c6:	6078      	str	r0, [r7, #4]
400022c8:	6039      	str	r1, [r7, #0]
400022ca:	2300      	movs	r3, #0
400022cc:	61fb      	str	r3, [r7, #28]
400022ce:	687b      	ldr	r3, [r7, #4]
400022d0:	685a      	ldr	r2, [r3, #4]
400022d2:	683b      	ldr	r3, [r7, #0]
400022d4:	1ad3      	subs	r3, r2, r3
400022d6:	61bb      	str	r3, [r7, #24]
400022d8:	69bb      	ldr	r3, [r7, #24]
400022da:	2b17      	cmp	r3, #23
400022dc:	d920      	bls.n	40002320 <mb_alloc+0x60>
400022de:	687a      	ldr	r2, [r7, #4]
400022e0:	683b      	ldr	r3, [r7, #0]
400022e2:	4413      	add	r3, r2
400022e4:	617b      	str	r3, [r7, #20]
400022e6:	69bb      	ldr	r3, [r7, #24]
400022e8:	3b08      	subs	r3, #8
400022ea:	697a      	ldr	r2, [r7, #20]
400022ec:	4413      	add	r3, r2
400022ee:	613b      	str	r3, [r7, #16]
400022f0:	697b      	ldr	r3, [r7, #20]
400022f2:	f24a 525a 	movw	r2, #42330	; 0xa55a
400022f6:	801a      	strh	r2, [r3, #0]
400022f8:	697b      	ldr	r3, [r7, #20]
400022fa:	2201      	movs	r2, #1
400022fc:	805a      	strh	r2, [r3, #2]
400022fe:	693b      	ldr	r3, [r7, #16]
40002300:	69ba      	ldr	r2, [r7, #24]
40002302:	601a      	str	r2, [r3, #0]
40002304:	693b      	ldr	r3, [r7, #16]
40002306:	681a      	ldr	r2, [r3, #0]
40002308:	697b      	ldr	r3, [r7, #20]
4000230a:	605a      	str	r2, [r3, #4]
4000230c:	697b      	ldr	r3, [r7, #20]
4000230e:	3308      	adds	r3, #8
40002310:	4619      	mov	r1, r3
40002312:	f644 2068 	movw	r0, #19048	; 0x4a68
40002316:	f2c4 0000 	movt	r0, #16384	; 0x4000
4000231a:	f7ff ff43 	bl	400021a4 <link_add_last>
4000231e:	e002      	b.n	40002326 <mb_alloc+0x66>
40002320:	687b      	ldr	r3, [r7, #4]
40002322:	685b      	ldr	r3, [r3, #4]
40002324:	603b      	str	r3, [r7, #0]
40002326:	687b      	ldr	r3, [r7, #4]
40002328:	60fb      	str	r3, [r7, #12]
4000232a:	683b      	ldr	r3, [r7, #0]
4000232c:	3b04      	subs	r3, #4
4000232e:	68fa      	ldr	r2, [r7, #12]
40002330:	4413      	add	r3, r2
40002332:	60bb      	str	r3, [r7, #8]
40002334:	68bb      	ldr	r3, [r7, #8]
40002336:	f24a 525a 	movw	r2, #42330	; 0xa55a
4000233a:	801a      	strh	r2, [r3, #0]
4000233c:	68bb      	ldr	r3, [r7, #8]
4000233e:	2202      	movs	r2, #2
40002340:	805a      	strh	r2, [r3, #2]
40002342:	68bb      	ldr	r3, [r7, #8]
40002344:	885a      	ldrh	r2, [r3, #2]
40002346:	68fb      	ldr	r3, [r7, #12]
40002348:	805a      	strh	r2, [r3, #2]
4000234a:	68fb      	ldr	r3, [r7, #12]
4000234c:	683a      	ldr	r2, [r7, #0]
4000234e:	605a      	str	r2, [r3, #4]
40002350:	68fb      	ldr	r3, [r7, #12]
40002352:	3308      	adds	r3, #8
40002354:	61fb      	str	r3, [r7, #28]
40002356:	69fb      	ldr	r3, [r7, #28]
40002358:	4618      	mov	r0, r3
4000235a:	3720      	adds	r7, #32
4000235c:	46bd      	mov	sp, r7
4000235e:	bd80      	pop	{r7, pc}

40002360 <sys_malloc_align_body>:
40002360:	b580      	push	{r7, lr}
40002362:	b08c      	sub	sp, #48	; 0x30
40002364:	af00      	add	r7, sp, #0
40002366:	6078      	str	r0, [r7, #4]
40002368:	6039      	str	r1, [r7, #0]
4000236a:	2300      	movs	r3, #0
4000236c:	62fb      	str	r3, [r7, #44]	; 0x2c
4000236e:	687b      	ldr	r3, [r7, #4]
40002370:	330f      	adds	r3, #15
40002372:	f023 0303 	bic.w	r3, r3, #3
40002376:	607b      	str	r3, [r7, #4]
40002378:	2300      	movs	r3, #0
4000237a:	62bb      	str	r3, [r7, #40]	; 0x28
4000237c:	2300      	movs	r3, #0
4000237e:	627b      	str	r3, [r7, #36]	; 0x24
40002380:	f644 2368 	movw	r3, #19048	; 0x4a68
40002384:	f2c4 0300 	movt	r3, #16384	; 0x4000
40002388:	681b      	ldr	r3, [r3, #0]
4000238a:	627b      	str	r3, [r7, #36]	; 0x24
4000238c:	e065      	b.n	4000245a <sys_malloc_align_body+0xfa>
4000238e:	6a7b      	ldr	r3, [r7, #36]	; 0x24
40002390:	623b      	str	r3, [r7, #32]
40002392:	6a3b      	ldr	r3, [r7, #32]
40002394:	3b08      	subs	r3, #8
40002396:	61fb      	str	r3, [r7, #28]
40002398:	69fb      	ldr	r3, [r7, #28]
4000239a:	3308      	adds	r3, #8
4000239c:	461a      	mov	r2, r3
4000239e:	683b      	ldr	r3, [r7, #0]
400023a0:	3b01      	subs	r3, #1
400023a2:	4013      	ands	r3, r2
400023a4:	2b00      	cmp	r3, #0
400023a6:	d10c      	bne.n	400023c2 <sys_malloc_align_body+0x62>
400023a8:	69fb      	ldr	r3, [r7, #28]
400023aa:	685a      	ldr	r2, [r3, #4]
400023ac:	687b      	ldr	r3, [r7, #4]
400023ae:	429a      	cmp	r2, r3
400023b0:	d350      	bcc.n	40002454 <sys_malloc_align_body+0xf4>
400023b2:	69fb      	ldr	r3, [r7, #28]
400023b4:	62bb      	str	r3, [r7, #40]	; 0x28
400023b6:	6abb      	ldr	r3, [r7, #40]	; 0x28
400023b8:	3308      	adds	r3, #8
400023ba:	4618      	mov	r0, r3
400023bc:	f7ff fedc 	bl	40002178 <link_remove>
400023c0:	e052      	b.n	40002468 <sys_malloc_align_body+0x108>
400023c2:	69fb      	ldr	r3, [r7, #28]
400023c4:	3320      	adds	r3, #32
400023c6:	61bb      	str	r3, [r7, #24]
400023c8:	69ba      	ldr	r2, [r7, #24]
400023ca:	683b      	ldr	r3, [r7, #0]
400023cc:	4413      	add	r3, r2
400023ce:	1e5a      	subs	r2, r3, #1
400023d0:	683b      	ldr	r3, [r7, #0]
400023d2:	425b      	negs	r3, r3
400023d4:	4013      	ands	r3, r2
400023d6:	61bb      	str	r3, [r7, #24]
400023d8:	69bb      	ldr	r3, [r7, #24]
400023da:	3b08      	subs	r3, #8
400023dc:	461a      	mov	r2, r3
400023de:	69fb      	ldr	r3, [r7, #28]
400023e0:	1ad3      	subs	r3, r2, r3
400023e2:	617b      	str	r3, [r7, #20]
400023e4:	697a      	ldr	r2, [r7, #20]
400023e6:	687b      	ldr	r3, [r7, #4]
400023e8:	441a      	add	r2, r3
400023ea:	69fb      	ldr	r3, [r7, #28]
400023ec:	685b      	ldr	r3, [r3, #4]
400023ee:	429a      	cmp	r2, r3
400023f0:	d830      	bhi.n	40002454 <sys_malloc_align_body+0xf4>
400023f2:	69fb      	ldr	r3, [r7, #28]
400023f4:	685a      	ldr	r2, [r3, #4]
400023f6:	697b      	ldr	r3, [r7, #20]
400023f8:	1ad3      	subs	r3, r2, r3
400023fa:	613b      	str	r3, [r7, #16]
400023fc:	697b      	ldr	r3, [r7, #20]
400023fe:	3b08      	subs	r3, #8
40002400:	69fa      	ldr	r2, [r7, #28]
40002402:	4413      	add	r3, r2
40002404:	60fb      	str	r3, [r7, #12]
40002406:	68fb      	ldr	r3, [r7, #12]
40002408:	f24a 525a 	movw	r2, #42330	; 0xa55a
4000240c:	809a      	strh	r2, [r3, #4]
4000240e:	68fb      	ldr	r3, [r7, #12]
40002410:	2201      	movs	r2, #1
40002412:	80da      	strh	r2, [r3, #6]
40002414:	68fb      	ldr	r3, [r7, #12]
40002416:	697a      	ldr	r2, [r7, #20]
40002418:	601a      	str	r2, [r3, #0]
4000241a:	68fb      	ldr	r3, [r7, #12]
4000241c:	681a      	ldr	r2, [r3, #0]
4000241e:	69fb      	ldr	r3, [r7, #28]
40002420:	605a      	str	r2, [r3, #4]
40002422:	68fb      	ldr	r3, [r7, #12]
40002424:	3308      	adds	r3, #8
40002426:	61fb      	str	r3, [r7, #28]
40002428:	693b      	ldr	r3, [r7, #16]
4000242a:	3b08      	subs	r3, #8
4000242c:	69fa      	ldr	r2, [r7, #28]
4000242e:	4413      	add	r3, r2
40002430:	60fb      	str	r3, [r7, #12]
40002432:	69fb      	ldr	r3, [r7, #28]
40002434:	f24a 525a 	movw	r2, #42330	; 0xa55a
40002438:	801a      	strh	r2, [r3, #0]
4000243a:	69fb      	ldr	r3, [r7, #28]
4000243c:	2202      	movs	r2, #2
4000243e:	805a      	strh	r2, [r3, #2]
40002440:	68fb      	ldr	r3, [r7, #12]
40002442:	693a      	ldr	r2, [r7, #16]
40002444:	601a      	str	r2, [r3, #0]
40002446:	68fb      	ldr	r3, [r7, #12]
40002448:	681a      	ldr	r2, [r3, #0]
4000244a:	69fb      	ldr	r3, [r7, #28]
4000244c:	605a      	str	r2, [r3, #4]
4000244e:	69fb      	ldr	r3, [r7, #28]
40002450:	62bb      	str	r3, [r7, #40]	; 0x28
40002452:	e009      	b.n	40002468 <sys_malloc_align_body+0x108>
40002454:	6a7b      	ldr	r3, [r7, #36]	; 0x24
40002456:	681b      	ldr	r3, [r3, #0]
40002458:	627b      	str	r3, [r7, #36]	; 0x24
4000245a:	6a7a      	ldr	r2, [r7, #36]	; 0x24
4000245c:	f644 2368 	movw	r3, #19048	; 0x4a68
40002460:	f2c4 0300 	movt	r3, #16384	; 0x4000
40002464:	429a      	cmp	r2, r3
40002466:	d192      	bne.n	4000238e <sys_malloc_align_body+0x2e>
40002468:	6abb      	ldr	r3, [r7, #40]	; 0x28
4000246a:	2b00      	cmp	r3, #0
4000246c:	d004      	beq.n	40002478 <sys_malloc_align_body+0x118>
4000246e:	6879      	ldr	r1, [r7, #4]
40002470:	6ab8      	ldr	r0, [r7, #40]	; 0x28
40002472:	f7ff ff25 	bl	400022c0 <mb_alloc>
40002476:	62f8      	str	r0, [r7, #44]	; 0x2c
40002478:	6afb      	ldr	r3, [r7, #44]	; 0x2c
4000247a:	4618      	mov	r0, r3
4000247c:	3730      	adds	r7, #48	; 0x30
4000247e:	46bd      	mov	sp, r7
40002480:	bd80      	pop	{r7, pc}
40002482:	bf00      	nop

40002484 <sys_malloc_body>:
40002484:	b580      	push	{r7, lr}
40002486:	b088      	sub	sp, #32
40002488:	af00      	add	r7, sp, #0
4000248a:	6078      	str	r0, [r7, #4]
4000248c:	2300      	movs	r3, #0
4000248e:	61fb      	str	r3, [r7, #28]
40002490:	687b      	ldr	r3, [r7, #4]
40002492:	330f      	adds	r3, #15
40002494:	f023 0303 	bic.w	r3, r3, #3
40002498:	607b      	str	r3, [r7, #4]
4000249a:	2300      	movs	r3, #0
4000249c:	61bb      	str	r3, [r7, #24]
4000249e:	2300      	movs	r3, #0
400024a0:	617b      	str	r3, [r7, #20]
400024a2:	f644 2368 	movw	r3, #19048	; 0x4a68
400024a6:	f2c4 0300 	movt	r3, #16384	; 0x4000
400024aa:	681b      	ldr	r3, [r3, #0]
400024ac:	617b      	str	r3, [r7, #20]
400024ae:	e00f      	b.n	400024d0 <sys_malloc_body+0x4c>
400024b0:	697b      	ldr	r3, [r7, #20]
400024b2:	613b      	str	r3, [r7, #16]
400024b4:	693b      	ldr	r3, [r7, #16]
400024b6:	3b08      	subs	r3, #8
400024b8:	60fb      	str	r3, [r7, #12]
400024ba:	68fb      	ldr	r3, [r7, #12]
400024bc:	685a      	ldr	r2, [r3, #4]
400024be:	687b      	ldr	r3, [r7, #4]
400024c0:	429a      	cmp	r2, r3
400024c2:	d302      	bcc.n	400024ca <sys_malloc_body+0x46>
400024c4:	68fb      	ldr	r3, [r7, #12]
400024c6:	61bb      	str	r3, [r7, #24]
400024c8:	e009      	b.n	400024de <sys_malloc_body+0x5a>
400024ca:	697b      	ldr	r3, [r7, #20]
400024cc:	681b      	ldr	r3, [r3, #0]
400024ce:	617b      	str	r3, [r7, #20]
400024d0:	697a      	ldr	r2, [r7, #20]
400024d2:	f644 2368 	movw	r3, #19048	; 0x4a68
400024d6:	f2c4 0300 	movt	r3, #16384	; 0x4000
400024da:	429a      	cmp	r2, r3
400024dc:	d1e8      	bne.n	400024b0 <sys_malloc_body+0x2c>
400024de:	69bb      	ldr	r3, [r7, #24]
400024e0:	2b00      	cmp	r3, #0
400024e2:	d009      	beq.n	400024f8 <sys_malloc_body+0x74>
400024e4:	69bb      	ldr	r3, [r7, #24]
400024e6:	3308      	adds	r3, #8
400024e8:	4618      	mov	r0, r3
400024ea:	f7ff fe45 	bl	40002178 <link_remove>
400024ee:	6879      	ldr	r1, [r7, #4]
400024f0:	69b8      	ldr	r0, [r7, #24]
400024f2:	f7ff fee5 	bl	400022c0 <mb_alloc>
400024f6:	61f8      	str	r0, [r7, #28]
400024f8:	69fb      	ldr	r3, [r7, #28]
400024fa:	4618      	mov	r0, r3
400024fc:	3720      	adds	r7, #32
400024fe:	46bd      	mov	sp, r7
40002500:	bd80      	pop	{r7, pc}
40002502:	bf00      	nop

40002504 <__sys_malloc_align>:
40002504:	b580      	push	{r7, lr}
40002506:	b084      	sub	sp, #16
40002508:	af00      	add	r7, sp, #0
4000250a:	6078      	str	r0, [r7, #4]
4000250c:	6039      	str	r1, [r7, #0]
4000250e:	f644 2070 	movw	r0, #19056	; 0x4a70
40002512:	f2c4 0000 	movt	r0, #16384	; 0x4000
40002516:	f000 faf3 	bl	40002b00 <_kernel_mutex_lock>
4000251a:	6839      	ldr	r1, [r7, #0]
4000251c:	6878      	ldr	r0, [r7, #4]
4000251e:	f7ff ff1f 	bl	40002360 <sys_malloc_align_body>
40002522:	60f8      	str	r0, [r7, #12]
40002524:	f644 2070 	movw	r0, #19056	; 0x4a70
40002528:	f2c4 0000 	movt	r0, #16384	; 0x4000
4000252c:	f000 fa06 	bl	4000293c <_kernel_mutex_unlock>
40002530:	68fb      	ldr	r3, [r7, #12]
40002532:	4618      	mov	r0, r3
40002534:	3710      	adds	r7, #16
40002536:	46bd      	mov	sp, r7
40002538:	bd80      	pop	{r7, pc}
4000253a:	bf00      	nop

4000253c <__sys_malloc>:
4000253c:	b580      	push	{r7, lr}
4000253e:	b084      	sub	sp, #16
40002540:	af00      	add	r7, sp, #0
40002542:	6078      	str	r0, [r7, #4]
40002544:	f644 2070 	movw	r0, #19056	; 0x4a70
40002548:	f2c4 0000 	movt	r0, #16384	; 0x4000
4000254c:	f000 fad8 	bl	40002b00 <_kernel_mutex_lock>
40002550:	6878      	ldr	r0, [r7, #4]
40002552:	f7ff ff97 	bl	40002484 <sys_malloc_body>
40002556:	60f8      	str	r0, [r7, #12]
40002558:	f644 2070 	movw	r0, #19056	; 0x4a70
4000255c:	f2c4 0000 	movt	r0, #16384	; 0x4000
40002560:	f000 f9ec 	bl	4000293c <_kernel_mutex_unlock>
40002564:	68fb      	ldr	r3, [r7, #12]
40002566:	4618      	mov	r0, r3
40002568:	3710      	adds	r7, #16
4000256a:	46bd      	mov	sp, r7
4000256c:	bd80      	pop	{r7, pc}
4000256e:	bf00      	nop

40002570 <__sys_free>:
40002570:	b580      	push	{r7, lr}
40002572:	b08a      	sub	sp, #40	; 0x28
40002574:	af00      	add	r7, sp, #0
40002576:	6078      	str	r0, [r7, #4]
40002578:	f644 2070 	movw	r0, #19056	; 0x4a70
4000257c:	f2c4 0000 	movt	r0, #16384	; 0x4000
40002580:	f000 fabe 	bl	40002b00 <_kernel_mutex_lock>
40002584:	687b      	ldr	r3, [r7, #4]
40002586:	3b08      	subs	r3, #8
40002588:	623b      	str	r3, [r7, #32]
4000258a:	6a3b      	ldr	r3, [r7, #32]
4000258c:	881b      	ldrh	r3, [r3, #0]
4000258e:	f24a 525a 	movw	r2, #42330	; 0xa55a
40002592:	4293      	cmp	r3, r2
40002594:	f040 8081 	bne.w	4000269a <__sys_free+0x12a>
40002598:	6a3b      	ldr	r3, [r7, #32]
4000259a:	885b      	ldrh	r3, [r3, #2]
4000259c:	2b02      	cmp	r3, #2
4000259e:	d17c      	bne.n	4000269a <__sys_free+0x12a>
400025a0:	6a3b      	ldr	r3, [r7, #32]
400025a2:	685b      	ldr	r3, [r3, #4]
400025a4:	3b04      	subs	r3, #4
400025a6:	6a3a      	ldr	r2, [r7, #32]
400025a8:	4413      	add	r3, r2
400025aa:	61fb      	str	r3, [r7, #28]
400025ac:	69fb      	ldr	r3, [r7, #28]
400025ae:	881b      	ldrh	r3, [r3, #0]
400025b0:	f24a 525a 	movw	r2, #42330	; 0xa55a
400025b4:	4293      	cmp	r3, r2
400025b6:	d170      	bne.n	4000269a <__sys_free+0x12a>
400025b8:	69fb      	ldr	r3, [r7, #28]
400025ba:	885b      	ldrh	r3, [r3, #2]
400025bc:	2b02      	cmp	r3, #2
400025be:	d16c      	bne.n	4000269a <__sys_free+0x12a>
400025c0:	6a3b      	ldr	r3, [r7, #32]
400025c2:	3b04      	subs	r3, #4
400025c4:	61bb      	str	r3, [r7, #24]
400025c6:	69fb      	ldr	r3, [r7, #28]
400025c8:	3304      	adds	r3, #4
400025ca:	617b      	str	r3, [r7, #20]
400025cc:	69bb      	ldr	r3, [r7, #24]
400025ce:	881b      	ldrh	r3, [r3, #0]
400025d0:	f24a 525a 	movw	r2, #42330	; 0xa55a
400025d4:	4293      	cmp	r3, r2
400025d6:	d160      	bne.n	4000269a <__sys_free+0x12a>
400025d8:	697b      	ldr	r3, [r7, #20]
400025da:	881b      	ldrh	r3, [r3, #0]
400025dc:	f24a 525a 	movw	r2, #42330	; 0xa55a
400025e0:	4293      	cmp	r3, r2
400025e2:	d15a      	bne.n	4000269a <__sys_free+0x12a>
400025e4:	2300      	movs	r3, #0
400025e6:	627b      	str	r3, [r7, #36]	; 0x24
400025e8:	2300      	movs	r3, #0
400025ea:	613b      	str	r3, [r7, #16]
400025ec:	69bb      	ldr	r3, [r7, #24]
400025ee:	885b      	ldrh	r3, [r3, #2]
400025f0:	2b01      	cmp	r3, #1
400025f2:	d11a      	bne.n	4000262a <__sys_free+0xba>
400025f4:	6a3b      	ldr	r3, [r7, #32]
400025f6:	3b08      	subs	r3, #8
400025f8:	613b      	str	r3, [r7, #16]
400025fa:	693b      	ldr	r3, [r7, #16]
400025fc:	681b      	ldr	r3, [r3, #0]
400025fe:	425b      	negs	r3, r3
40002600:	6a3a      	ldr	r2, [r7, #32]
40002602:	4413      	add	r3, r2
40002604:	627b      	str	r3, [r7, #36]	; 0x24
40002606:	697b      	ldr	r3, [r7, #20]
40002608:	3b08      	subs	r3, #8
4000260a:	613b      	str	r3, [r7, #16]
4000260c:	693b      	ldr	r3, [r7, #16]
4000260e:	2201      	movs	r2, #1
40002610:	80da      	strh	r2, [r3, #6]
40002612:	6a7b      	ldr	r3, [r7, #36]	; 0x24
40002614:	685a      	ldr	r2, [r3, #4]
40002616:	6a3b      	ldr	r3, [r7, #32]
40002618:	685b      	ldr	r3, [r3, #4]
4000261a:	441a      	add	r2, r3
4000261c:	6a7b      	ldr	r3, [r7, #36]	; 0x24
4000261e:	605a      	str	r2, [r3, #4]
40002620:	6a7b      	ldr	r3, [r7, #36]	; 0x24
40002622:	685a      	ldr	r2, [r3, #4]
40002624:	693b      	ldr	r3, [r7, #16]
40002626:	601a      	str	r2, [r3, #0]
40002628:	e01b      	b.n	40002662 <__sys_free+0xf2>
4000262a:	6a3b      	ldr	r3, [r7, #32]
4000262c:	627b      	str	r3, [r7, #36]	; 0x24
4000262e:	6a7b      	ldr	r3, [r7, #36]	; 0x24
40002630:	685b      	ldr	r3, [r3, #4]
40002632:	3b08      	subs	r3, #8
40002634:	6a7a      	ldr	r2, [r7, #36]	; 0x24
40002636:	4413      	add	r3, r2
40002638:	613b      	str	r3, [r7, #16]
4000263a:	693b      	ldr	r3, [r7, #16]
4000263c:	2201      	movs	r2, #1
4000263e:	80da      	strh	r2, [r3, #6]
40002640:	693b      	ldr	r3, [r7, #16]
40002642:	88da      	ldrh	r2, [r3, #6]
40002644:	6a7b      	ldr	r3, [r7, #36]	; 0x24
40002646:	805a      	strh	r2, [r3, #2]
40002648:	6a7b      	ldr	r3, [r7, #36]	; 0x24
4000264a:	685a      	ldr	r2, [r3, #4]
4000264c:	693b      	ldr	r3, [r7, #16]
4000264e:	601a      	str	r2, [r3, #0]
40002650:	6a7b      	ldr	r3, [r7, #36]	; 0x24
40002652:	3308      	adds	r3, #8
40002654:	4619      	mov	r1, r3
40002656:	f644 2068 	movw	r0, #19048	; 0x4a68
4000265a:	f2c4 0000 	movt	r0, #16384	; 0x4000
4000265e:	f7ff fda1 	bl	400021a4 <link_add_last>
40002662:	697b      	ldr	r3, [r7, #20]
40002664:	885b      	ldrh	r3, [r3, #2]
40002666:	2b01      	cmp	r3, #1
40002668:	d117      	bne.n	4000269a <__sys_free+0x12a>
4000266a:	697b      	ldr	r3, [r7, #20]
4000266c:	60fb      	str	r3, [r7, #12]
4000266e:	68fb      	ldr	r3, [r7, #12]
40002670:	685b      	ldr	r3, [r3, #4]
40002672:	3b08      	subs	r3, #8
40002674:	68fa      	ldr	r2, [r7, #12]
40002676:	4413      	add	r3, r2
40002678:	60bb      	str	r3, [r7, #8]
4000267a:	6a7b      	ldr	r3, [r7, #36]	; 0x24
4000267c:	685a      	ldr	r2, [r3, #4]
4000267e:	68fb      	ldr	r3, [r7, #12]
40002680:	685b      	ldr	r3, [r3, #4]
40002682:	441a      	add	r2, r3
40002684:	6a7b      	ldr	r3, [r7, #36]	; 0x24
40002686:	605a      	str	r2, [r3, #4]
40002688:	6a7b      	ldr	r3, [r7, #36]	; 0x24
4000268a:	685a      	ldr	r2, [r3, #4]
4000268c:	68bb      	ldr	r3, [r7, #8]
4000268e:	601a      	str	r2, [r3, #0]
40002690:	68fb      	ldr	r3, [r7, #12]
40002692:	3308      	adds	r3, #8
40002694:	4618      	mov	r0, r3
40002696:	f7ff fd6f 	bl	40002178 <link_remove>
4000269a:	f644 2070 	movw	r0, #19056	; 0x4a70
4000269e:	f2c4 0000 	movt	r0, #16384	; 0x4000
400026a2:	f000 f94b 	bl	4000293c <_kernel_mutex_unlock>
400026a6:	bf00      	nop
400026a8:	3728      	adds	r7, #40	; 0x28
400026aa:	46bd      	mov	sp, r7
400026ac:	bd80      	pop	{r7, pc}
400026ae:	bf00      	nop

400026b0 <link_clear>:
400026b0:	b480      	push	{r7}
400026b2:	b083      	sub	sp, #12
400026b4:	af00      	add	r7, sp, #0
400026b6:	6078      	str	r0, [r7, #4]
400026b8:	687b      	ldr	r3, [r7, #4]
400026ba:	687a      	ldr	r2, [r7, #4]
400026bc:	605a      	str	r2, [r3, #4]
400026be:	687b      	ldr	r3, [r7, #4]
400026c0:	685a      	ldr	r2, [r3, #4]
400026c2:	687b      	ldr	r3, [r7, #4]
400026c4:	601a      	str	r2, [r3, #0]
400026c6:	370c      	adds	r7, #12
400026c8:	46bd      	mov	sp, r7
400026ca:	f85d 7b04 	ldr.w	r7, [sp], #4
400026ce:	4770      	bx	lr

400026d0 <link_remove>:
400026d0:	b480      	push	{r7}
400026d2:	b085      	sub	sp, #20
400026d4:	af00      	add	r7, sp, #0
400026d6:	6078      	str	r0, [r7, #4]
400026d8:	687b      	ldr	r3, [r7, #4]
400026da:	685b      	ldr	r3, [r3, #4]
400026dc:	60fb      	str	r3, [r7, #12]
400026de:	687b      	ldr	r3, [r7, #4]
400026e0:	681b      	ldr	r3, [r3, #0]
400026e2:	60bb      	str	r3, [r7, #8]
400026e4:	68fb      	ldr	r3, [r7, #12]
400026e6:	68ba      	ldr	r2, [r7, #8]
400026e8:	601a      	str	r2, [r3, #0]
400026ea:	68bb      	ldr	r3, [r7, #8]
400026ec:	68fa      	ldr	r2, [r7, #12]
400026ee:	605a      	str	r2, [r3, #4]
400026f0:	3714      	adds	r7, #20
400026f2:	46bd      	mov	sp, r7
400026f4:	f85d 7b04 	ldr.w	r7, [sp], #4
400026f8:	4770      	bx	lr
400026fa:	bf00      	nop

400026fc <link_add_last>:
400026fc:	b480      	push	{r7}
400026fe:	b085      	sub	sp, #20
40002700:	af00      	add	r7, sp, #0
40002702:	6078      	str	r0, [r7, #4]
40002704:	6039      	str	r1, [r7, #0]
40002706:	687b      	ldr	r3, [r7, #4]
40002708:	685b      	ldr	r3, [r3, #4]
4000270a:	60fb      	str	r3, [r7, #12]
4000270c:	683b      	ldr	r3, [r7, #0]
4000270e:	687a      	ldr	r2, [r7, #4]
40002710:	601a      	str	r2, [r3, #0]
40002712:	683b      	ldr	r3, [r7, #0]
40002714:	68fa      	ldr	r2, [r7, #12]
40002716:	605a      	str	r2, [r3, #4]
40002718:	687b      	ldr	r3, [r7, #4]
4000271a:	683a      	ldr	r2, [r7, #0]
4000271c:	605a      	str	r2, [r3, #4]
4000271e:	68fb      	ldr	r3, [r7, #12]
40002720:	683a      	ldr	r2, [r7, #0]
40002722:	601a      	str	r2, [r3, #0]
40002724:	3714      	adds	r7, #20
40002726:	46bd      	mov	sp, r7
40002728:	f85d 7b04 	ldr.w	r7, [sp], #4
4000272c:	4770      	bx	lr
4000272e:	bf00      	nop

40002730 <link_is_empty>:
40002730:	b480      	push	{r7}
40002732:	b085      	sub	sp, #20
40002734:	af00      	add	r7, sp, #0
40002736:	6078      	str	r0, [r7, #4]
40002738:	2300      	movs	r3, #0
4000273a:	73fb      	strb	r3, [r7, #15]
4000273c:	687b      	ldr	r3, [r7, #4]
4000273e:	681a      	ldr	r2, [r3, #0]
40002740:	687b      	ldr	r3, [r7, #4]
40002742:	429a      	cmp	r2, r3
40002744:	d101      	bne.n	4000274a <link_is_empty+0x1a>
40002746:	2301      	movs	r3, #1
40002748:	73fb      	strb	r3, [r7, #15]
4000274a:	7bfb      	ldrb	r3, [r7, #15]
4000274c:	4618      	mov	r0, r3
4000274e:	3714      	adds	r7, #20
40002750:	46bd      	mov	sp, r7
40002752:	f85d 7b04 	ldr.w	r7, [sp], #4
40002756:	4770      	bx	lr

40002758 <task_set_wait>:
40002758:	b480      	push	{r7}
4000275a:	b085      	sub	sp, #20
4000275c:	af00      	add	r7, sp, #0
4000275e:	60f8      	str	r0, [r7, #12]
40002760:	60b9      	str	r1, [r7, #8]
40002762:	607a      	str	r2, [r7, #4]
40002764:	68fb      	ldr	r3, [r7, #12]
40002766:	68ba      	ldr	r2, [r7, #8]
40002768:	669a      	str	r2, [r3, #104]	; 0x68
4000276a:	68fb      	ldr	r3, [r7, #12]
4000276c:	687a      	ldr	r2, [r7, #4]
4000276e:	66da      	str	r2, [r3, #108]	; 0x6c
40002770:	68fb      	ldr	r3, [r7, #12]
40002772:	2202      	movs	r2, #2
40002774:	655a      	str	r2, [r3, #84]	; 0x54
40002776:	3714      	adds	r7, #20
40002778:	46bd      	mov	sp, r7
4000277a:	f85d 7b04 	ldr.w	r7, [sp], #4
4000277e:	4770      	bx	lr

40002780 <task_self>:
40002780:	b480      	push	{r7}
40002782:	b083      	sub	sp, #12
40002784:	af00      	add	r7, sp, #0
40002786:	ee10 3fb0 	mrc	15, 0, r3, cr0, cr0, {5}
4000278a:	607b      	str	r3, [r7, #4]
4000278c:	687b      	ldr	r3, [r7, #4]
4000278e:	b2da      	uxtb	r2, r3
40002790:	f245 23ac 	movw	r3, #21164	; 0x52ac
40002794:	f2c4 0300 	movt	r3, #16384	; 0x4000
40002798:	f44f 7190 	mov.w	r1, #288	; 0x120
4000279c:	fb01 f202 	mul.w	r2, r1, r2
400027a0:	4413      	add	r3, r2
400027a2:	681b      	ldr	r3, [r3, #0]
400027a4:	4618      	mov	r0, r3
400027a6:	370c      	adds	r7, #12
400027a8:	46bd      	mov	sp, r7
400027aa:	f85d 7b04 	ldr.w	r7, [sp], #4
400027ae:	4770      	bx	lr

400027b0 <mutex_sub_init>:
400027b0:	b480      	push	{r7}
400027b2:	af00      	add	r7, sp, #0
400027b4:	46bd      	mov	sp, r7
400027b6:	f85d 7b04 	ldr.w	r7, [sp], #4
400027ba:	4770      	bx	lr

400027bc <alloc_mutex_id>:
400027bc:	b480      	push	{r7}
400027be:	b083      	sub	sp, #12
400027c0:	af00      	add	r7, sp, #0
400027c2:	f3ef 8300 	mrs	r3, CPSR
400027c6:	b672      	cpsid	i
400027c8:	603b      	str	r3, [r7, #0]
400027ca:	f04f 33ff 	mov.w	r3, #4294967295
400027ce:	607b      	str	r3, [r7, #4]
400027d0:	f644 2390 	movw	r3, #19088	; 0x4a90
400027d4:	f2c4 0300 	movt	r3, #16384	; 0x4000
400027d8:	681a      	ldr	r2, [r3, #0]
400027da:	f644 238c 	movw	r3, #19084	; 0x4a8c
400027de:	f2c4 0300 	movt	r3, #16384	; 0x4000
400027e2:	681b      	ldr	r3, [r3, #0]
400027e4:	429a      	cmp	r2, r3
400027e6:	da10      	bge.n	4000280a <alloc_mutex_id+0x4e>
400027e8:	f644 2390 	movw	r3, #19088	; 0x4a90
400027ec:	f2c4 0300 	movt	r3, #16384	; 0x4000
400027f0:	681b      	ldr	r3, [r3, #0]
400027f2:	607b      	str	r3, [r7, #4]
400027f4:	f644 2390 	movw	r3, #19088	; 0x4a90
400027f8:	f2c4 0300 	movt	r3, #16384	; 0x4000
400027fc:	681b      	ldr	r3, [r3, #0]
400027fe:	1c5a      	adds	r2, r3, #1
40002800:	f644 2390 	movw	r3, #19088	; 0x4a90
40002804:	f2c4 0300 	movt	r3, #16384	; 0x4000
40002808:	601a      	str	r2, [r3, #0]
4000280a:	683b      	ldr	r3, [r7, #0]
4000280c:	f003 0380 	and.w	r3, r3, #128	; 0x80
40002810:	2b00      	cmp	r3, #0
40002812:	d100      	bne.n	40002816 <alloc_mutex_id+0x5a>
40002814:	b662      	cpsie	i
40002816:	687b      	ldr	r3, [r7, #4]
40002818:	4618      	mov	r0, r3
4000281a:	370c      	adds	r7, #12
4000281c:	46bd      	mov	sp, r7
4000281e:	f85d 7b04 	ldr.w	r7, [sp], #4
40002822:	4770      	bx	lr

40002824 <mutexid2object>:
40002824:	b480      	push	{r7}
40002826:	b083      	sub	sp, #12
40002828:	af00      	add	r7, sp, #0
4000282a:	6078      	str	r0, [r7, #4]
4000282c:	f644 2388 	movw	r3, #19080	; 0x4a88
40002830:	f2c4 0300 	movt	r3, #16384	; 0x4000
40002834:	681a      	ldr	r2, [r3, #0]
40002836:	687b      	ldr	r3, [r7, #4]
40002838:	011b      	lsls	r3, r3, #4
4000283a:	4413      	add	r3, r2
4000283c:	4618      	mov	r0, r3
4000283e:	370c      	adds	r7, #12
40002840:	46bd      	mov	sp, r7
40002842:	f85d 7b04 	ldr.w	r7, [sp], #4
40002846:	4770      	bx	lr

40002848 <free_mutex_struct>:
40002848:	b480      	push	{r7}
4000284a:	b083      	sub	sp, #12
4000284c:	af00      	add	r7, sp, #0
4000284e:	6078      	str	r0, [r7, #4]
40002850:	370c      	adds	r7, #12
40002852:	46bd      	mov	sp, r7
40002854:	f85d 7b04 	ldr.w	r7, [sp], #4
40002858:	4770      	bx	lr
4000285a:	bf00      	nop

4000285c <mutex_init>:
4000285c:	b580      	push	{r7, lr}
4000285e:	af00      	add	r7, sp, #0
40002860:	2108      	movs	r1, #8
40002862:	f44f 60c8 	mov.w	r0, #1600	; 0x640
40002866:	f7ff fc1f 	bl	400020a8 <st_malloc_align>
4000286a:	4602      	mov	r2, r0
4000286c:	f644 2388 	movw	r3, #19080	; 0x4a88
40002870:	f2c4 0300 	movt	r3, #16384	; 0x4000
40002874:	601a      	str	r2, [r3, #0]
40002876:	f644 238c 	movw	r3, #19084	; 0x4a8c
4000287a:	f2c4 0300 	movt	r3, #16384	; 0x4000
4000287e:	2264      	movs	r2, #100	; 0x64
40002880:	601a      	str	r2, [r3, #0]
40002882:	f644 2390 	movw	r3, #19088	; 0x4a90
40002886:	f2c4 0300 	movt	r3, #16384	; 0x4000
4000288a:	2200      	movs	r2, #0
4000288c:	601a      	str	r2, [r3, #0]
4000288e:	f7ff ff8f 	bl	400027b0 <mutex_sub_init>
40002892:	bd80      	pop	{r7, pc}

40002894 <mutex_spininit>:
40002894:	b580      	push	{r7, lr}
40002896:	b082      	sub	sp, #8
40002898:	af00      	add	r7, sp, #0
4000289a:	6078      	str	r0, [r7, #4]
4000289c:	687b      	ldr	r3, [r7, #4]
4000289e:	3308      	adds	r3, #8
400028a0:	4618      	mov	r0, r3
400028a2:	f001 f92f 	bl	40003b04 <spin_init>
400028a6:	3708      	adds	r7, #8
400028a8:	46bd      	mov	sp, r7
400028aa:	bd80      	pop	{r7, pc}

400028ac <mutex_spinlock>:
400028ac:	b580      	push	{r7, lr}
400028ae:	b082      	sub	sp, #8
400028b0:	af00      	add	r7, sp, #0
400028b2:	6078      	str	r0, [r7, #4]
400028b4:	687b      	ldr	r3, [r7, #4]
400028b6:	3308      	adds	r3, #8
400028b8:	4618      	mov	r0, r3
400028ba:	f001 f929 	bl	40003b10 <spin_lock>
400028be:	3708      	adds	r7, #8
400028c0:	46bd      	mov	sp, r7
400028c2:	bd80      	pop	{r7, pc}

400028c4 <mutex_spinunlock>:
400028c4:	b580      	push	{r7, lr}
400028c6:	b082      	sub	sp, #8
400028c8:	af00      	add	r7, sp, #0
400028ca:	6078      	str	r0, [r7, #4]
400028cc:	687b      	ldr	r3, [r7, #4]
400028ce:	3308      	adds	r3, #8
400028d0:	4618      	mov	r0, r3
400028d2:	f001 f92b 	bl	40003b2c <spin_unlock>
400028d6:	3708      	adds	r7, #8
400028d8:	46bd      	mov	sp, r7
400028da:	bd80      	pop	{r7, pc}

400028dc <cpu_spinunlock>:
400028dc:	b580      	push	{r7, lr}
400028de:	b082      	sub	sp, #8
400028e0:	af00      	add	r7, sp, #0
400028e2:	6078      	str	r0, [r7, #4]
400028e4:	687b      	ldr	r3, [r7, #4]
400028e6:	3308      	adds	r3, #8
400028e8:	4618      	mov	r0, r3
400028ea:	f001 f91f 	bl	40003b2c <spin_unlock>
400028ee:	3708      	adds	r7, #8
400028f0:	46bd      	mov	sp, r7
400028f2:	bd80      	pop	{r7, pc}

400028f4 <cpu_spintrylock>:
400028f4:	b580      	push	{r7, lr}
400028f6:	b082      	sub	sp, #8
400028f8:	af00      	add	r7, sp, #0
400028fa:	6078      	str	r0, [r7, #4]
400028fc:	687b      	ldr	r3, [r7, #4]
400028fe:	3308      	adds	r3, #8
40002900:	4618      	mov	r0, r3
40002902:	f001 f91c 	bl	40003b3e <spin_trylock>
40002906:	4603      	mov	r3, r0
40002908:	4618      	mov	r0, r3
4000290a:	3708      	adds	r7, #8
4000290c:	46bd      	mov	sp, r7
4000290e:	bd80      	pop	{r7, pc}

40002910 <_kernel_mutex_create>:
40002910:	b580      	push	{r7, lr}
40002912:	b082      	sub	sp, #8
40002914:	af00      	add	r7, sp, #0
40002916:	6078      	str	r0, [r7, #4]
40002918:	687b      	ldr	r3, [r7, #4]
4000291a:	4618      	mov	r0, r3
4000291c:	f7ff fec8 	bl	400026b0 <link_clear>
40002920:	687b      	ldr	r3, [r7, #4]
40002922:	2200      	movs	r2, #0
40002924:	731a      	strb	r2, [r3, #12]
40002926:	6878      	ldr	r0, [r7, #4]
40002928:	f7ff ffb4 	bl	40002894 <mutex_spininit>
4000292c:	f3bf 8f4f 	dsb	sy
40002930:	2300      	movs	r3, #0
40002932:	4618      	mov	r0, r3
40002934:	3708      	adds	r7, #8
40002936:	46bd      	mov	sp, r7
40002938:	bd80      	pop	{r7, pc}
4000293a:	bf00      	nop

4000293c <_kernel_mutex_unlock>:
4000293c:	b580      	push	{r7, lr}
4000293e:	b08a      	sub	sp, #40	; 0x28
40002940:	af00      	add	r7, sp, #0
40002942:	6078      	str	r0, [r7, #4]
40002944:	2300      	movs	r3, #0
40002946:	627b      	str	r3, [r7, #36]	; 0x24
40002948:	2300      	movs	r3, #0
4000294a:	623b      	str	r3, [r7, #32]
4000294c:	f3ef 8300 	mrs	r3, CPSR
40002950:	b672      	cpsid	i
40002952:	61fb      	str	r3, [r7, #28]
40002954:	6878      	ldr	r0, [r7, #4]
40002956:	f7ff ffa9 	bl	400028ac <mutex_spinlock>
4000295a:	687b      	ldr	r3, [r7, #4]
4000295c:	7b1b      	ldrb	r3, [r3, #12]
4000295e:	2b00      	cmp	r3, #0
40002960:	d03a      	beq.n	400029d8 <_kernel_mutex_unlock+0x9c>
40002962:	687b      	ldr	r3, [r7, #4]
40002964:	4618      	mov	r0, r3
40002966:	f7ff fee3 	bl	40002730 <link_is_empty>
4000296a:	4603      	mov	r3, r0
4000296c:	f083 0301 	eor.w	r3, r3, #1
40002970:	b2db      	uxtb	r3, r3
40002972:	2b00      	cmp	r3, #0
40002974:	d02c      	beq.n	400029d0 <_kernel_mutex_unlock+0x94>
40002976:	687b      	ldr	r3, [r7, #4]
40002978:	681b      	ldr	r3, [r3, #0]
4000297a:	61bb      	str	r3, [r7, #24]
4000297c:	69bb      	ldr	r3, [r7, #24]
4000297e:	617b      	str	r3, [r7, #20]
40002980:	697b      	ldr	r3, [r7, #20]
40002982:	613b      	str	r3, [r7, #16]
40002984:	693b      	ldr	r3, [r7, #16]
40002986:	6f5b      	ldr	r3, [r3, #116]	; 0x74
40002988:	60fb      	str	r3, [r7, #12]
4000298a:	68f8      	ldr	r0, [r7, #12]
4000298c:	f7ff ffb2 	bl	400028f4 <cpu_spintrylock>
40002990:	4603      	mov	r3, r0
40002992:	2b00      	cmp	r3, #0
40002994:	d109      	bne.n	400029aa <_kernel_mutex_unlock+0x6e>
40002996:	6878      	ldr	r0, [r7, #4]
40002998:	f7ff ff94 	bl	400028c4 <mutex_spinunlock>
4000299c:	69fb      	ldr	r3, [r7, #28]
4000299e:	f003 0380 	and.w	r3, r3, #128	; 0x80
400029a2:	2b00      	cmp	r3, #0
400029a4:	d100      	bne.n	400029a8 <_kernel_mutex_unlock+0x6c>
400029a6:	b662      	cpsie	i
400029a8:	e7d0      	b.n	4000294c <_kernel_mutex_unlock+0x10>
400029aa:	69b8      	ldr	r0, [r7, #24]
400029ac:	f7ff fe90 	bl	400026d0 <link_remove>
400029b0:	2100      	movs	r1, #0
400029b2:	6938      	ldr	r0, [r7, #16]
400029b4:	f7fe fd86 	bl	400014c4 <task_wakeup_stub>
400029b8:	68f8      	ldr	r0, [r7, #12]
400029ba:	f7fe fdf5 	bl	400015a8 <schedule>
400029be:	4603      	mov	r3, r0
400029c0:	2b00      	cmp	r3, #0
400029c2:	d001      	beq.n	400029c8 <_kernel_mutex_unlock+0x8c>
400029c4:	68fb      	ldr	r3, [r7, #12]
400029c6:	623b      	str	r3, [r7, #32]
400029c8:	68f8      	ldr	r0, [r7, #12]
400029ca:	f7ff ff87 	bl	400028dc <cpu_spinunlock>
400029ce:	e006      	b.n	400029de <_kernel_mutex_unlock+0xa2>
400029d0:	687b      	ldr	r3, [r7, #4]
400029d2:	2200      	movs	r2, #0
400029d4:	731a      	strb	r2, [r3, #12]
400029d6:	e002      	b.n	400029de <_kernel_mutex_unlock+0xa2>
400029d8:	f04f 33ff 	mov.w	r3, #4294967295
400029dc:	627b      	str	r3, [r7, #36]	; 0x24
400029de:	6878      	ldr	r0, [r7, #4]
400029e0:	f7ff ff70 	bl	400028c4 <mutex_spinunlock>
400029e4:	6a3b      	ldr	r3, [r7, #32]
400029e6:	2b00      	cmp	r3, #0
400029e8:	d00f      	beq.n	40002a0a <_kernel_mutex_unlock+0xce>
400029ea:	6a3b      	ldr	r3, [r7, #32]
400029ec:	f8d3 211c 	ldr.w	r2, [r3, #284]	; 0x11c
400029f0:	ee10 3fb0 	mrc	15, 0, r3, cr0, cr0, {5}
400029f4:	60bb      	str	r3, [r7, #8]
400029f6:	68bb      	ldr	r3, [r7, #8]
400029f8:	b2db      	uxtb	r3, r3
400029fa:	429a      	cmp	r2, r3
400029fc:	d102      	bne.n	40002a04 <_kernel_mutex_unlock+0xc8>
400029fe:	f7fe fdff 	bl	40001600 <self_request_dispatch>
40002a02:	e002      	b.n	40002a0a <_kernel_mutex_unlock+0xce>
40002a04:	6a38      	ldr	r0, [r7, #32]
40002a06:	f7fd fe67 	bl	400006d8 <ipi_request_dispatch_one>
40002a0a:	69fb      	ldr	r3, [r7, #28]
40002a0c:	f003 0380 	and.w	r3, r3, #128	; 0x80
40002a10:	2b00      	cmp	r3, #0
40002a12:	d100      	bne.n	40002a16 <_kernel_mutex_unlock+0xda>
40002a14:	b662      	cpsie	i
40002a16:	6a7b      	ldr	r3, [r7, #36]	; 0x24
40002a18:	4618      	mov	r0, r3
40002a1a:	3728      	adds	r7, #40	; 0x28
40002a1c:	46bd      	mov	sp, r7
40002a1e:	bd80      	pop	{r7, pc}

40002a20 <_kernel_mutex_tlock>:
40002a20:	b580      	push	{r7, lr}
40002a22:	b086      	sub	sp, #24
40002a24:	af00      	add	r7, sp, #0
40002a26:	6078      	str	r0, [r7, #4]
40002a28:	6039      	str	r1, [r7, #0]
40002a2a:	2300      	movs	r3, #0
40002a2c:	75fb      	strb	r3, [r7, #23]
40002a2e:	f3ef 8300 	mrs	r3, CPSR
40002a32:	b672      	cpsid	i
40002a34:	613b      	str	r3, [r7, #16]
40002a36:	6878      	ldr	r0, [r7, #4]
40002a38:	f7ff ff38 	bl	400028ac <mutex_spinlock>
40002a3c:	f7ff fea0 	bl	40002780 <task_self>
40002a40:	60f8      	str	r0, [r7, #12]
40002a42:	68fb      	ldr	r3, [r7, #12]
40002a44:	6f5b      	ldr	r3, [r3, #116]	; 0x74
40002a46:	60bb      	str	r3, [r7, #8]
40002a48:	68b8      	ldr	r0, [r7, #8]
40002a4a:	f7ff ff53 	bl	400028f4 <cpu_spintrylock>
40002a4e:	4603      	mov	r3, r0
40002a50:	2b00      	cmp	r3, #0
40002a52:	d109      	bne.n	40002a68 <_kernel_mutex_tlock+0x48>
40002a54:	6878      	ldr	r0, [r7, #4]
40002a56:	f7ff ff35 	bl	400028c4 <mutex_spinunlock>
40002a5a:	693b      	ldr	r3, [r7, #16]
40002a5c:	f003 0380 	and.w	r3, r3, #128	; 0x80
40002a60:	2b00      	cmp	r3, #0
40002a62:	d100      	bne.n	40002a66 <_kernel_mutex_tlock+0x46>
40002a64:	b662      	cpsie	i
40002a66:	e7e2      	b.n	40002a2e <_kernel_mutex_tlock+0xe>
40002a68:	68fb      	ldr	r3, [r7, #12]
40002a6a:	2200      	movs	r2, #0
40002a6c:	671a      	str	r2, [r3, #112]	; 0x70
40002a6e:	687b      	ldr	r3, [r7, #4]
40002a70:	7b1b      	ldrb	r3, [r3, #12]
40002a72:	f083 0301 	eor.w	r3, r3, #1
40002a76:	b2db      	uxtb	r3, r3
40002a78:	2b00      	cmp	r3, #0
40002a7a:	d003      	beq.n	40002a84 <_kernel_mutex_tlock+0x64>
40002a7c:	687b      	ldr	r3, [r7, #4]
40002a7e:	2201      	movs	r2, #1
40002a80:	731a      	strb	r2, [r3, #12]
40002a82:	e026      	b.n	40002ad2 <_kernel_mutex_tlock+0xb2>
40002a84:	683b      	ldr	r3, [r7, #0]
40002a86:	2b00      	cmp	r3, #0
40002a88:	d104      	bne.n	40002a94 <_kernel_mutex_tlock+0x74>
40002a8a:	68fb      	ldr	r3, [r7, #12]
40002a8c:	f06f 0201 	mvn.w	r2, #1
40002a90:	671a      	str	r2, [r3, #112]	; 0x70
40002a92:	e01e      	b.n	40002ad2 <_kernel_mutex_tlock+0xb2>
40002a94:	2200      	movs	r2, #0
40002a96:	2100      	movs	r1, #0
40002a98:	68f8      	ldr	r0, [r7, #12]
40002a9a:	f7ff fe5d 	bl	40002758 <task_set_wait>
40002a9e:	68f8      	ldr	r0, [r7, #12]
40002aa0:	f7fe fbe6 	bl	40001270 <task_remove_queue>
40002aa4:	687b      	ldr	r3, [r7, #4]
40002aa6:	68fa      	ldr	r2, [r7, #12]
40002aa8:	4611      	mov	r1, r2
40002aaa:	4618      	mov	r0, r3
40002aac:	f7ff fe26 	bl	400026fc <link_add_last>
40002ab0:	683b      	ldr	r3, [r7, #0]
40002ab2:	f1b3 3fff 	cmp.w	r3, #4294967295
40002ab6:	d003      	beq.n	40002ac0 <_kernel_mutex_tlock+0xa0>
40002ab8:	6839      	ldr	r1, [r7, #0]
40002aba:	68f8      	ldr	r0, [r7, #12]
40002abc:	f7fe fca0 	bl	40001400 <task_add_timeout>
40002ac0:	68b8      	ldr	r0, [r7, #8]
40002ac2:	f7fe fd71 	bl	400015a8 <schedule>
40002ac6:	4603      	mov	r3, r0
40002ac8:	2b00      	cmp	r3, #0
40002aca:	bf14      	ite	ne
40002acc:	2301      	movne	r3, #1
40002ace:	2300      	moveq	r3, #0
40002ad0:	75fb      	strb	r3, [r7, #23]
40002ad2:	68b8      	ldr	r0, [r7, #8]
40002ad4:	f7ff ff02 	bl	400028dc <cpu_spinunlock>
40002ad8:	6878      	ldr	r0, [r7, #4]
40002ada:	f7ff fef3 	bl	400028c4 <mutex_spinunlock>
40002ade:	7dfb      	ldrb	r3, [r7, #23]
40002ae0:	2b00      	cmp	r3, #0
40002ae2:	d001      	beq.n	40002ae8 <_kernel_mutex_tlock+0xc8>
40002ae4:	f7fe fd8c 	bl	40001600 <self_request_dispatch>
40002ae8:	693b      	ldr	r3, [r7, #16]
40002aea:	f003 0380 	and.w	r3, r3, #128	; 0x80
40002aee:	2b00      	cmp	r3, #0
40002af0:	d100      	bne.n	40002af4 <_kernel_mutex_tlock+0xd4>
40002af2:	b662      	cpsie	i
40002af4:	68fb      	ldr	r3, [r7, #12]
40002af6:	6f1b      	ldr	r3, [r3, #112]	; 0x70
40002af8:	4618      	mov	r0, r3
40002afa:	3718      	adds	r7, #24
40002afc:	46bd      	mov	sp, r7
40002afe:	bd80      	pop	{r7, pc}

40002b00 <_kernel_mutex_lock>:
40002b00:	b580      	push	{r7, lr}
40002b02:	b082      	sub	sp, #8
40002b04:	af00      	add	r7, sp, #0
40002b06:	6078      	str	r0, [r7, #4]
40002b08:	f04f 31ff 	mov.w	r1, #4294967295
40002b0c:	6878      	ldr	r0, [r7, #4]
40002b0e:	f7ff ff87 	bl	40002a20 <_kernel_mutex_tlock>
40002b12:	4603      	mov	r3, r0
40002b14:	4618      	mov	r0, r3
40002b16:	3708      	adds	r7, #8
40002b18:	46bd      	mov	sp, r7
40002b1a:	bd80      	pop	{r7, pc}

40002b1c <__mutex_create>:
40002b1c:	b580      	push	{r7, lr}
40002b1e:	b084      	sub	sp, #16
40002b20:	af00      	add	r7, sp, #0
40002b22:	f04f 33ff 	mov.w	r3, #4294967295
40002b26:	60fb      	str	r3, [r7, #12]
40002b28:	f7ff fe48 	bl	400027bc <alloc_mutex_id>
40002b2c:	60b8      	str	r0, [r7, #8]
40002b2e:	68bb      	ldr	r3, [r7, #8]
40002b30:	2b00      	cmp	r3, #0
40002b32:	db10      	blt.n	40002b56 <__mutex_create+0x3a>
40002b34:	68b8      	ldr	r0, [r7, #8]
40002b36:	f7ff fe75 	bl	40002824 <mutexid2object>
40002b3a:	6078      	str	r0, [r7, #4]
40002b3c:	6878      	ldr	r0, [r7, #4]
40002b3e:	f7ff fee7 	bl	40002910 <_kernel_mutex_create>
40002b42:	60f8      	str	r0, [r7, #12]
40002b44:	68fb      	ldr	r3, [r7, #12]
40002b46:	2b00      	cmp	r3, #0
40002b48:	d102      	bne.n	40002b50 <__mutex_create+0x34>
40002b4a:	68bb      	ldr	r3, [r7, #8]
40002b4c:	60fb      	str	r3, [r7, #12]
40002b4e:	e002      	b.n	40002b56 <__mutex_create+0x3a>
40002b50:	68b8      	ldr	r0, [r7, #8]
40002b52:	f7ff fe79 	bl	40002848 <free_mutex_struct>
40002b56:	68fb      	ldr	r3, [r7, #12]
40002b58:	4618      	mov	r0, r3
40002b5a:	3710      	adds	r7, #16
40002b5c:	46bd      	mov	sp, r7
40002b5e:	bd80      	pop	{r7, pc}

40002b60 <__mutex_unlock>:
40002b60:	b580      	push	{r7, lr}
40002b62:	b084      	sub	sp, #16
40002b64:	af00      	add	r7, sp, #0
40002b66:	6078      	str	r0, [r7, #4]
40002b68:	6878      	ldr	r0, [r7, #4]
40002b6a:	f7ff fe5b 	bl	40002824 <mutexid2object>
40002b6e:	60f8      	str	r0, [r7, #12]
40002b70:	68f8      	ldr	r0, [r7, #12]
40002b72:	f7ff fee3 	bl	4000293c <_kernel_mutex_unlock>
40002b76:	4603      	mov	r3, r0
40002b78:	4618      	mov	r0, r3
40002b7a:	3710      	adds	r7, #16
40002b7c:	46bd      	mov	sp, r7
40002b7e:	bd80      	pop	{r7, pc}

40002b80 <__mutex_lock>:
40002b80:	b580      	push	{r7, lr}
40002b82:	b084      	sub	sp, #16
40002b84:	af00      	add	r7, sp, #0
40002b86:	6078      	str	r0, [r7, #4]
40002b88:	6878      	ldr	r0, [r7, #4]
40002b8a:	f7ff fe4b 	bl	40002824 <mutexid2object>
40002b8e:	60f8      	str	r0, [r7, #12]
40002b90:	68f8      	ldr	r0, [r7, #12]
40002b92:	f7ff ffb5 	bl	40002b00 <_kernel_mutex_lock>
40002b96:	4603      	mov	r3, r0
40002b98:	4618      	mov	r0, r3
40002b9a:	3710      	adds	r7, #16
40002b9c:	46bd      	mov	sp, r7
40002b9e:	bd80      	pop	{r7, pc}

40002ba0 <__mutex_tlock>:
40002ba0:	b580      	push	{r7, lr}
40002ba2:	b084      	sub	sp, #16
40002ba4:	af00      	add	r7, sp, #0
40002ba6:	6078      	str	r0, [r7, #4]
40002ba8:	6039      	str	r1, [r7, #0]
40002baa:	6878      	ldr	r0, [r7, #4]
40002bac:	f7ff fe3a 	bl	40002824 <mutexid2object>
40002bb0:	60f8      	str	r0, [r7, #12]
40002bb2:	6839      	ldr	r1, [r7, #0]
40002bb4:	68f8      	ldr	r0, [r7, #12]
40002bb6:	f7ff ff33 	bl	40002a20 <_kernel_mutex_tlock>
40002bba:	4603      	mov	r3, r0
40002bbc:	4618      	mov	r0, r3
40002bbe:	3710      	adds	r7, #16
40002bc0:	46bd      	mov	sp, r7
40002bc2:	bd80      	pop	{r7, pc}

40002bc4 <init_task>:
40002bc4:	b580      	push	{r7, lr}
40002bc6:	af00      	add	r7, sp, #0
40002bc8:	f000 fca6 	bl	40003518 <lprintf_init>
40002bcc:	f7fd fd9c 	bl	40000708 <init_task_arch_depend>
40002bd0:	f244 105c 	movw	r0, #16732	; 0x415c
40002bd4:	f2c4 0000 	movt	r0, #16384	; 0x4000
40002bd8:	f000 fed6 	bl	40003988 <task_create>
40002bdc:	f000 fede 	bl	4000399c <task_sleep>
40002be0:	e7fc      	b.n	40002bdc <init_task+0x18>
40002be2:	bf00      	nop

40002be4 <link_clear>:
40002be4:	b480      	push	{r7}
40002be6:	b083      	sub	sp, #12
40002be8:	af00      	add	r7, sp, #0
40002bea:	6078      	str	r0, [r7, #4]
40002bec:	687b      	ldr	r3, [r7, #4]
40002bee:	687a      	ldr	r2, [r7, #4]
40002bf0:	605a      	str	r2, [r3, #4]
40002bf2:	687b      	ldr	r3, [r7, #4]
40002bf4:	685a      	ldr	r2, [r3, #4]
40002bf6:	687b      	ldr	r3, [r7, #4]
40002bf8:	601a      	str	r2, [r3, #0]
40002bfa:	370c      	adds	r7, #12
40002bfc:	46bd      	mov	sp, r7
40002bfe:	f85d 7b04 	ldr.w	r7, [sp], #4
40002c02:	4770      	bx	lr

40002c04 <link_remove>:
40002c04:	b480      	push	{r7}
40002c06:	b085      	sub	sp, #20
40002c08:	af00      	add	r7, sp, #0
40002c0a:	6078      	str	r0, [r7, #4]
40002c0c:	687b      	ldr	r3, [r7, #4]
40002c0e:	685b      	ldr	r3, [r3, #4]
40002c10:	60fb      	str	r3, [r7, #12]
40002c12:	687b      	ldr	r3, [r7, #4]
40002c14:	681b      	ldr	r3, [r3, #0]
40002c16:	60bb      	str	r3, [r7, #8]
40002c18:	68fb      	ldr	r3, [r7, #12]
40002c1a:	68ba      	ldr	r2, [r7, #8]
40002c1c:	601a      	str	r2, [r3, #0]
40002c1e:	68bb      	ldr	r3, [r7, #8]
40002c20:	68fa      	ldr	r2, [r7, #12]
40002c22:	605a      	str	r2, [r3, #4]
40002c24:	3714      	adds	r7, #20
40002c26:	46bd      	mov	sp, r7
40002c28:	f85d 7b04 	ldr.w	r7, [sp], #4
40002c2c:	4770      	bx	lr
40002c2e:	bf00      	nop

40002c30 <link_add_last>:
40002c30:	b480      	push	{r7}
40002c32:	b085      	sub	sp, #20
40002c34:	af00      	add	r7, sp, #0
40002c36:	6078      	str	r0, [r7, #4]
40002c38:	6039      	str	r1, [r7, #0]
40002c3a:	687b      	ldr	r3, [r7, #4]
40002c3c:	685b      	ldr	r3, [r3, #4]
40002c3e:	60fb      	str	r3, [r7, #12]
40002c40:	683b      	ldr	r3, [r7, #0]
40002c42:	687a      	ldr	r2, [r7, #4]
40002c44:	601a      	str	r2, [r3, #0]
40002c46:	683b      	ldr	r3, [r7, #0]
40002c48:	68fa      	ldr	r2, [r7, #12]
40002c4a:	605a      	str	r2, [r3, #4]
40002c4c:	687b      	ldr	r3, [r7, #4]
40002c4e:	683a      	ldr	r2, [r7, #0]
40002c50:	605a      	str	r2, [r3, #4]
40002c52:	68fb      	ldr	r3, [r7, #12]
40002c54:	683a      	ldr	r2, [r7, #0]
40002c56:	601a      	str	r2, [r3, #0]
40002c58:	3714      	adds	r7, #20
40002c5a:	46bd      	mov	sp, r7
40002c5c:	f85d 7b04 	ldr.w	r7, [sp], #4
40002c60:	4770      	bx	lr
40002c62:	bf00      	nop

40002c64 <link_is_empty>:
40002c64:	b480      	push	{r7}
40002c66:	b085      	sub	sp, #20
40002c68:	af00      	add	r7, sp, #0
40002c6a:	6078      	str	r0, [r7, #4]
40002c6c:	2300      	movs	r3, #0
40002c6e:	73fb      	strb	r3, [r7, #15]
40002c70:	687b      	ldr	r3, [r7, #4]
40002c72:	681a      	ldr	r2, [r3, #0]
40002c74:	687b      	ldr	r3, [r7, #4]
40002c76:	429a      	cmp	r2, r3
40002c78:	d101      	bne.n	40002c7e <link_is_empty+0x1a>
40002c7a:	2301      	movs	r3, #1
40002c7c:	73fb      	strb	r3, [r7, #15]
40002c7e:	7bfb      	ldrb	r3, [r7, #15]
40002c80:	4618      	mov	r0, r3
40002c82:	3714      	adds	r7, #20
40002c84:	46bd      	mov	sp, r7
40002c86:	f85d 7b04 	ldr.w	r7, [sp], #4
40002c8a:	4770      	bx	lr

40002c8c <timer_sub_init>:
40002c8c:	b480      	push	{r7}
40002c8e:	af00      	add	r7, sp, #0
40002c90:	46bd      	mov	sp, r7
40002c92:	f85d 7b04 	ldr.w	r7, [sp], #4
40002c96:	4770      	bx	lr

40002c98 <alloc_timer_id>:
40002c98:	b480      	push	{r7}
40002c9a:	b083      	sub	sp, #12
40002c9c:	af00      	add	r7, sp, #0
40002c9e:	f3ef 8300 	mrs	r3, CPSR
40002ca2:	b672      	cpsid	i
40002ca4:	603b      	str	r3, [r7, #0]
40002ca6:	f04f 33ff 	mov.w	r3, #4294967295
40002caa:	607b      	str	r3, [r7, #4]
40002cac:	f644 239c 	movw	r3, #19100	; 0x4a9c
40002cb0:	f2c4 0300 	movt	r3, #16384	; 0x4000
40002cb4:	681a      	ldr	r2, [r3, #0]
40002cb6:	f644 2398 	movw	r3, #19096	; 0x4a98
40002cba:	f2c4 0300 	movt	r3, #16384	; 0x4000
40002cbe:	681b      	ldr	r3, [r3, #0]
40002cc0:	429a      	cmp	r2, r3
40002cc2:	da10      	bge.n	40002ce6 <alloc_timer_id+0x4e>
40002cc4:	f644 239c 	movw	r3, #19100	; 0x4a9c
40002cc8:	f2c4 0300 	movt	r3, #16384	; 0x4000
40002ccc:	681b      	ldr	r3, [r3, #0]
40002cce:	607b      	str	r3, [r7, #4]
40002cd0:	f644 239c 	movw	r3, #19100	; 0x4a9c
40002cd4:	f2c4 0300 	movt	r3, #16384	; 0x4000
40002cd8:	681b      	ldr	r3, [r3, #0]
40002cda:	1c5a      	adds	r2, r3, #1
40002cdc:	f644 239c 	movw	r3, #19100	; 0x4a9c
40002ce0:	f2c4 0300 	movt	r3, #16384	; 0x4000
40002ce4:	601a      	str	r2, [r3, #0]
40002ce6:	683b      	ldr	r3, [r7, #0]
40002ce8:	f003 0380 	and.w	r3, r3, #128	; 0x80
40002cec:	2b00      	cmp	r3, #0
40002cee:	d100      	bne.n	40002cf2 <alloc_timer_id+0x5a>
40002cf0:	b662      	cpsie	i
40002cf2:	687b      	ldr	r3, [r7, #4]
40002cf4:	4618      	mov	r0, r3
40002cf6:	370c      	adds	r7, #12
40002cf8:	46bd      	mov	sp, r7
40002cfa:	f85d 7b04 	ldr.w	r7, [sp], #4
40002cfe:	4770      	bx	lr

40002d00 <timerid2object>:
40002d00:	b480      	push	{r7}
40002d02:	b083      	sub	sp, #12
40002d04:	af00      	add	r7, sp, #0
40002d06:	6078      	str	r0, [r7, #4]
40002d08:	f644 2394 	movw	r3, #19092	; 0x4a94
40002d0c:	f2c4 0300 	movt	r3, #16384	; 0x4000
40002d10:	681a      	ldr	r2, [r3, #0]
40002d12:	687b      	ldr	r3, [r7, #4]
40002d14:	2128      	movs	r1, #40	; 0x28
40002d16:	fb01 f303 	mul.w	r3, r1, r3
40002d1a:	4413      	add	r3, r2
40002d1c:	4618      	mov	r0, r3
40002d1e:	370c      	adds	r7, #12
40002d20:	46bd      	mov	sp, r7
40002d22:	f85d 7b04 	ldr.w	r7, [sp], #4
40002d26:	4770      	bx	lr

40002d28 <free_timer_struct>:
40002d28:	b480      	push	{r7}
40002d2a:	b083      	sub	sp, #12
40002d2c:	af00      	add	r7, sp, #0
40002d2e:	6078      	str	r0, [r7, #4]
40002d30:	370c      	adds	r7, #12
40002d32:	46bd      	mov	sp, r7
40002d34:	f85d 7b04 	ldr.w	r7, [sp], #4
40002d38:	4770      	bx	lr
40002d3a:	bf00      	nop

40002d3c <timer_init>:
40002d3c:	b580      	push	{r7, lr}
40002d3e:	af00      	add	r7, sp, #0
40002d40:	2108      	movs	r1, #8
40002d42:	f44f 607a 	mov.w	r0, #4000	; 0xfa0
40002d46:	f7ff f9af 	bl	400020a8 <st_malloc_align>
40002d4a:	4602      	mov	r2, r0
40002d4c:	f644 2394 	movw	r3, #19092	; 0x4a94
40002d50:	f2c4 0300 	movt	r3, #16384	; 0x4000
40002d54:	601a      	str	r2, [r3, #0]
40002d56:	f644 2398 	movw	r3, #19096	; 0x4a98
40002d5a:	f2c4 0300 	movt	r3, #16384	; 0x4000
40002d5e:	2264      	movs	r2, #100	; 0x64
40002d60:	601a      	str	r2, [r3, #0]
40002d62:	f644 239c 	movw	r3, #19100	; 0x4a9c
40002d66:	f2c4 0300 	movt	r3, #16384	; 0x4000
40002d6a:	2200      	movs	r2, #0
40002d6c:	601a      	str	r2, [r3, #0]
40002d6e:	f7ff ff8d 	bl	40002c8c <timer_sub_init>
40002d72:	bd80      	pop	{r7, pc}

40002d74 <_kernel_timer_create>:
40002d74:	b580      	push	{r7, lr}
40002d76:	b082      	sub	sp, #8
40002d78:	af00      	add	r7, sp, #0
40002d7a:	6078      	str	r0, [r7, #4]
40002d7c:	687b      	ldr	r3, [r7, #4]
40002d7e:	4618      	mov	r0, r3
40002d80:	f7ff ff30 	bl	40002be4 <link_clear>
40002d84:	2300      	movs	r3, #0
40002d86:	4618      	mov	r0, r3
40002d88:	3708      	adds	r7, #8
40002d8a:	46bd      	mov	sp, r7
40002d8c:	bd80      	pop	{r7, pc}
40002d8e:	bf00      	nop

40002d90 <_kernel_timer_set>:
40002d90:	b5b0      	push	{r4, r5, r7, lr}
40002d92:	b084      	sub	sp, #16
40002d94:	af00      	add	r7, sp, #0
40002d96:	6078      	str	r0, [r7, #4]
40002d98:	6039      	str	r1, [r7, #0]
40002d9a:	f3ef 8300 	mrs	r3, CPSR
40002d9e:	b672      	cpsid	i
40002da0:	60fb      	str	r3, [r7, #12]
40002da2:	687b      	ldr	r3, [r7, #4]
40002da4:	4618      	mov	r0, r3
40002da6:	f7ff ff5d 	bl	40002c64 <link_is_empty>
40002daa:	4603      	mov	r3, r0
40002dac:	f083 0301 	eor.w	r3, r3, #1
40002db0:	b2db      	uxtb	r3, r3
40002db2:	2b00      	cmp	r3, #0
40002db4:	d003      	beq.n	40002dbe <_kernel_timer_set+0x2e>
40002db6:	687b      	ldr	r3, [r7, #4]
40002db8:	4618      	mov	r0, r3
40002dba:	f7ff ff23 	bl	40002c04 <link_remove>
40002dbe:	68fb      	ldr	r3, [r7, #12]
40002dc0:	f003 0380 	and.w	r3, r3, #128	; 0x80
40002dc4:	2b00      	cmp	r3, #0
40002dc6:	d100      	bne.n	40002dca <_kernel_timer_set+0x3a>
40002dc8:	b662      	cpsie	i
40002dca:	687b      	ldr	r3, [r7, #4]
40002dcc:	683a      	ldr	r2, [r7, #0]
40002dce:	f103 0410 	add.w	r4, r3, #16
40002dd2:	4615      	mov	r5, r2
40002dd4:	cd0f      	ldmia	r5!, {r0, r1, r2, r3}
40002dd6:	c40f      	stmia	r4!, {r0, r1, r2, r3}
40002dd8:	682b      	ldr	r3, [r5, #0]
40002dda:	6023      	str	r3, [r4, #0]
40002ddc:	2300      	movs	r3, #0
40002dde:	4618      	mov	r0, r3
40002de0:	3710      	adds	r7, #16
40002de2:	46bd      	mov	sp, r7
40002de4:	bdb0      	pop	{r4, r5, r7, pc}
40002de6:	bf00      	nop

40002de8 <_timer_add>:
40002de8:	b590      	push	{r4, r7, lr}
40002dea:	b087      	sub	sp, #28
40002dec:	af00      	add	r7, sp, #0
40002dee:	6078      	str	r0, [r7, #4]
40002df0:	f244 137c 	movw	r3, #16764	; 0x417c
40002df4:	f2c4 0300 	movt	r3, #16384	; 0x4000
40002df8:	681b      	ldr	r3, [r3, #0]
40002dfa:	617b      	str	r3, [r7, #20]
40002dfc:	e011      	b.n	40002e22 <_timer_add+0x3a>
40002dfe:	697b      	ldr	r3, [r7, #20]
40002e00:	613b      	str	r3, [r7, #16]
40002e02:	693b      	ldr	r3, [r7, #16]
40002e04:	60fb      	str	r3, [r7, #12]
40002e06:	687b      	ldr	r3, [r7, #4]
40002e08:	e9d3 3402 	ldrd	r3, r4, [r3, #8]
40002e0c:	68fa      	ldr	r2, [r7, #12]
40002e0e:	e9d2 1202 	ldrd	r1, r2, [r2, #8]
40002e12:	42a2      	cmp	r2, r4
40002e14:	bf08      	it	eq
40002e16:	4299      	cmpeq	r1, r3
40002e18:	d300      	bcc.n	40002e1c <_timer_add+0x34>
40002e1a:	e009      	b.n	40002e30 <_timer_add+0x48>
40002e1c:	697b      	ldr	r3, [r7, #20]
40002e1e:	681b      	ldr	r3, [r3, #0]
40002e20:	617b      	str	r3, [r7, #20]
40002e22:	697a      	ldr	r2, [r7, #20]
40002e24:	f244 137c 	movw	r3, #16764	; 0x417c
40002e28:	f2c4 0300 	movt	r3, #16384	; 0x4000
40002e2c:	429a      	cmp	r2, r3
40002e2e:	d1e6      	bne.n	40002dfe <_timer_add+0x16>
40002e30:	687b      	ldr	r3, [r7, #4]
40002e32:	4619      	mov	r1, r3
40002e34:	6978      	ldr	r0, [r7, #20]
40002e36:	f7ff fefb 	bl	40002c30 <link_add_last>
40002e3a:	371c      	adds	r7, #28
40002e3c:	46bd      	mov	sp, r7
40002e3e:	bd90      	pop	{r4, r7, pc}

40002e40 <_kernel_timer_enable>:
40002e40:	b590      	push	{r4, r7, lr}
40002e42:	b085      	sub	sp, #20
40002e44:	af00      	add	r7, sp, #0
40002e46:	6078      	str	r0, [r7, #4]
40002e48:	460b      	mov	r3, r1
40002e4a:	70fb      	strb	r3, [r7, #3]
40002e4c:	f3ef 8300 	mrs	r3, CPSR
40002e50:	b672      	cpsid	i
40002e52:	60fb      	str	r3, [r7, #12]
40002e54:	78fb      	ldrb	r3, [r7, #3]
40002e56:	2b00      	cmp	r3, #0
40002e58:	d011      	beq.n	40002e7e <_kernel_timer_enable+0x3e>
40002e5a:	f7fd ff03 	bl	40000c64 <get_tick_count>
40002e5e:	460a      	mov	r2, r1
40002e60:	4601      	mov	r1, r0
40002e62:	687b      	ldr	r3, [r7, #4]
40002e64:	691b      	ldr	r3, [r3, #16]
40002e66:	f04f 0400 	mov.w	r4, #0
40002e6a:	185b      	adds	r3, r3, r1
40002e6c:	eb44 0402 	adc.w	r4, r4, r2
40002e70:	687a      	ldr	r2, [r7, #4]
40002e72:	e9c2 3402 	strd	r3, r4, [r2, #8]
40002e76:	6878      	ldr	r0, [r7, #4]
40002e78:	f7ff ffb6 	bl	40002de8 <_timer_add>
40002e7c:	e003      	b.n	40002e86 <_kernel_timer_enable+0x46>
40002e7e:	687b      	ldr	r3, [r7, #4]
40002e80:	4618      	mov	r0, r3
40002e82:	f7ff febf 	bl	40002c04 <link_remove>
40002e86:	f7fe fa41 	bl	4000130c <_kernel_timer_update>
40002e8a:	68fb      	ldr	r3, [r7, #12]
40002e8c:	f003 0380 	and.w	r3, r3, #128	; 0x80
40002e90:	2b00      	cmp	r3, #0
40002e92:	d100      	bne.n	40002e96 <_kernel_timer_enable+0x56>
40002e94:	b662      	cpsie	i
40002e96:	2300      	movs	r3, #0
40002e98:	4618      	mov	r0, r3
40002e9a:	3714      	adds	r7, #20
40002e9c:	46bd      	mov	sp, r7
40002e9e:	bd90      	pop	{r4, r7, pc}

40002ea0 <__timer_create>:
40002ea0:	b580      	push	{r7, lr}
40002ea2:	b084      	sub	sp, #16
40002ea4:	af00      	add	r7, sp, #0
40002ea6:	f04f 33ff 	mov.w	r3, #4294967295
40002eaa:	60fb      	str	r3, [r7, #12]
40002eac:	f7ff fef4 	bl	40002c98 <alloc_timer_id>
40002eb0:	60b8      	str	r0, [r7, #8]
40002eb2:	68bb      	ldr	r3, [r7, #8]
40002eb4:	2b00      	cmp	r3, #0
40002eb6:	db10      	blt.n	40002eda <__timer_create+0x3a>
40002eb8:	68b8      	ldr	r0, [r7, #8]
40002eba:	f7ff ff21 	bl	40002d00 <timerid2object>
40002ebe:	6078      	str	r0, [r7, #4]
40002ec0:	6878      	ldr	r0, [r7, #4]
40002ec2:	f7ff ff57 	bl	40002d74 <_kernel_timer_create>
40002ec6:	60f8      	str	r0, [r7, #12]
40002ec8:	68fb      	ldr	r3, [r7, #12]
40002eca:	2b00      	cmp	r3, #0
40002ecc:	d102      	bne.n	40002ed4 <__timer_create+0x34>
40002ece:	68bb      	ldr	r3, [r7, #8]
40002ed0:	60fb      	str	r3, [r7, #12]
40002ed2:	e002      	b.n	40002eda <__timer_create+0x3a>
40002ed4:	68b8      	ldr	r0, [r7, #8]
40002ed6:	f7ff ff27 	bl	40002d28 <free_timer_struct>
40002eda:	68fb      	ldr	r3, [r7, #12]
40002edc:	4618      	mov	r0, r3
40002ede:	3710      	adds	r7, #16
40002ee0:	46bd      	mov	sp, r7
40002ee2:	bd80      	pop	{r7, pc}

40002ee4 <__timer_set>:
40002ee4:	b580      	push	{r7, lr}
40002ee6:	b084      	sub	sp, #16
40002ee8:	af00      	add	r7, sp, #0
40002eea:	6078      	str	r0, [r7, #4]
40002eec:	6039      	str	r1, [r7, #0]
40002eee:	6878      	ldr	r0, [r7, #4]
40002ef0:	f7ff ff06 	bl	40002d00 <timerid2object>
40002ef4:	60f8      	str	r0, [r7, #12]
40002ef6:	6839      	ldr	r1, [r7, #0]
40002ef8:	68f8      	ldr	r0, [r7, #12]
40002efa:	f7ff ff49 	bl	40002d90 <_kernel_timer_set>
40002efe:	4603      	mov	r3, r0
40002f00:	4618      	mov	r0, r3
40002f02:	3710      	adds	r7, #16
40002f04:	46bd      	mov	sp, r7
40002f06:	bd80      	pop	{r7, pc}

40002f08 <__timer_enable>:
40002f08:	b580      	push	{r7, lr}
40002f0a:	b084      	sub	sp, #16
40002f0c:	af00      	add	r7, sp, #0
40002f0e:	6078      	str	r0, [r7, #4]
40002f10:	460b      	mov	r3, r1
40002f12:	70fb      	strb	r3, [r7, #3]
40002f14:	6878      	ldr	r0, [r7, #4]
40002f16:	f7ff fef3 	bl	40002d00 <timerid2object>
40002f1a:	60f8      	str	r0, [r7, #12]
40002f1c:	78fb      	ldrb	r3, [r7, #3]
40002f1e:	4619      	mov	r1, r3
40002f20:	68f8      	ldr	r0, [r7, #12]
40002f22:	f7ff ff8d 	bl	40002e40 <_kernel_timer_enable>
40002f26:	4603      	mov	r3, r0
40002f28:	4618      	mov	r0, r3
40002f2a:	3710      	adds	r7, #16
40002f2c:	46bd      	mov	sp, r7
40002f2e:	bd80      	pop	{r7, pc}

40002f30 <_timer_notify_tick>:
40002f30:	b590      	push	{r4, r7, lr}
40002f32:	b087      	sub	sp, #28
40002f34:	af00      	add	r7, sp, #0
40002f36:	e9c7 0100 	strd	r0, r1, [r7]
40002f3a:	e02b      	b.n	40002f94 <_timer_notify_tick+0x64>
40002f3c:	697b      	ldr	r3, [r7, #20]
40002f3e:	613b      	str	r3, [r7, #16]
40002f40:	693b      	ldr	r3, [r7, #16]
40002f42:	60fb      	str	r3, [r7, #12]
40002f44:	68fb      	ldr	r3, [r7, #12]
40002f46:	e9d3 3402 	ldrd	r3, r4, [r3, #8]
40002f4a:	e9d7 1200 	ldrd	r1, r2, [r7]
40002f4e:	42a2      	cmp	r2, r4
40002f50:	bf08      	it	eq
40002f52:	4299      	cmpeq	r1, r3
40002f54:	d200      	bcs.n	40002f58 <_timer_notify_tick+0x28>
40002f56:	e02a      	b.n	40002fae <_timer_notify_tick+0x7e>
40002f58:	68fb      	ldr	r3, [r7, #12]
40002f5a:	4618      	mov	r0, r3
40002f5c:	f7ff fe52 	bl	40002c04 <link_remove>
40002f60:	68fb      	ldr	r3, [r7, #12]
40002f62:	69db      	ldr	r3, [r3, #28]
40002f64:	68fa      	ldr	r2, [r7, #12]
40002f66:	6a12      	ldr	r2, [r2, #32]
40002f68:	4610      	mov	r0, r2
40002f6a:	4798      	blx	r3
40002f6c:	68fb      	ldr	r3, [r7, #12]
40002f6e:	699b      	ldr	r3, [r3, #24]
40002f70:	2b01      	cmp	r3, #1
40002f72:	d10f      	bne.n	40002f94 <_timer_notify_tick+0x64>
40002f74:	68fb      	ldr	r3, [r7, #12]
40002f76:	695b      	ldr	r3, [r3, #20]
40002f78:	4619      	mov	r1, r3
40002f7a:	f04f 0200 	mov.w	r2, #0
40002f7e:	e9d7 3400 	ldrd	r3, r4, [r7]
40002f82:	185b      	adds	r3, r3, r1
40002f84:	eb44 0402 	adc.w	r4, r4, r2
40002f88:	68fa      	ldr	r2, [r7, #12]
40002f8a:	e9c2 3402 	strd	r3, r4, [r2, #8]
40002f8e:	68f8      	ldr	r0, [r7, #12]
40002f90:	f7ff ff2a 	bl	40002de8 <_timer_add>
40002f94:	f244 137c 	movw	r3, #16764	; 0x417c
40002f98:	f2c4 0300 	movt	r3, #16384	; 0x4000
40002f9c:	681b      	ldr	r3, [r3, #0]
40002f9e:	617b      	str	r3, [r7, #20]
40002fa0:	697a      	ldr	r2, [r7, #20]
40002fa2:	f244 137c 	movw	r3, #16764	; 0x417c
40002fa6:	f2c4 0300 	movt	r3, #16384	; 0x4000
40002faa:	429a      	cmp	r2, r3
40002fac:	d1c6      	bne.n	40002f3c <_timer_notify_tick+0xc>
40002fae:	371c      	adds	r7, #28
40002fb0:	46bd      	mov	sp, r7
40002fb2:	bd90      	pop	{r4, r7, pc}

40002fb4 <_timer_get_next_timeout>:
40002fb4:	b590      	push	{r4, r7, lr}
40002fb6:	b085      	sub	sp, #20
40002fb8:	af00      	add	r7, sp, #0
40002fba:	f04f 0300 	mov.w	r3, #0
40002fbe:	f04f 0400 	mov.w	r4, #0
40002fc2:	e9c7 3402 	strd	r3, r4, [r7, #8]
40002fc6:	f244 107c 	movw	r0, #16764	; 0x417c
40002fca:	f2c4 0000 	movt	r0, #16384	; 0x4000
40002fce:	f7ff fe49 	bl	40002c64 <link_is_empty>
40002fd2:	4603      	mov	r3, r0
40002fd4:	f083 0301 	eor.w	r3, r3, #1
40002fd8:	b2db      	uxtb	r3, r3
40002fda:	2b00      	cmp	r3, #0
40002fdc:	d00c      	beq.n	40002ff8 <_timer_get_next_timeout+0x44>
40002fde:	f244 137c 	movw	r3, #16764	; 0x417c
40002fe2:	f2c4 0300 	movt	r3, #16384	; 0x4000
40002fe6:	681b      	ldr	r3, [r3, #0]
40002fe8:	607b      	str	r3, [r7, #4]
40002fea:	687b      	ldr	r3, [r7, #4]
40002fec:	603b      	str	r3, [r7, #0]
40002fee:	683b      	ldr	r3, [r7, #0]
40002ff0:	e9d3 3402 	ldrd	r3, r4, [r3, #8]
40002ff4:	e9c7 3402 	strd	r3, r4, [r7, #8]
40002ff8:	e9d7 3402 	ldrd	r3, r4, [r7, #8]
40002ffc:	4618      	mov	r0, r3
40002ffe:	4621      	mov	r1, r4
40003000:	3714      	adds	r7, #20
40003002:	46bd      	mov	sp, r7
40003004:	bd90      	pop	{r4, r7, pc}
40003006:	bf00      	nop

40003008 <smp_init>:
40003008:	b580      	push	{r7, lr}
4000300a:	af00      	add	r7, sp, #0
4000300c:	f7fd fe8c 	bl	40000d28 <arch_smp_init>
40003010:	bd80      	pop	{r7, pc}
40003012:	bf00      	nop

40003014 <memset>:
40003014:	b480      	push	{r7}
40003016:	b087      	sub	sp, #28
40003018:	af00      	add	r7, sp, #0
4000301a:	60f8      	str	r0, [r7, #12]
4000301c:	60b9      	str	r1, [r7, #8]
4000301e:	607a      	str	r2, [r7, #4]
40003020:	68fb      	ldr	r3, [r7, #12]
40003022:	617b      	str	r3, [r7, #20]
40003024:	e009      	b.n	4000303a <memset+0x26>
40003026:	68bb      	ldr	r3, [r7, #8]
40003028:	b2da      	uxtb	r2, r3
4000302a:	697b      	ldr	r3, [r7, #20]
4000302c:	701a      	strb	r2, [r3, #0]
4000302e:	687b      	ldr	r3, [r7, #4]
40003030:	3b01      	subs	r3, #1
40003032:	607b      	str	r3, [r7, #4]
40003034:	697b      	ldr	r3, [r7, #20]
40003036:	3301      	adds	r3, #1
40003038:	617b      	str	r3, [r7, #20]
4000303a:	687b      	ldr	r3, [r7, #4]
4000303c:	2b00      	cmp	r3, #0
4000303e:	d1f2      	bne.n	40003026 <memset+0x12>
40003040:	371c      	adds	r7, #28
40003042:	46bd      	mov	sp, r7
40003044:	f85d 7b04 	ldr.w	r7, [sp], #4
40003048:	4770      	bx	lr
4000304a:	bf00      	nop

4000304c <memcpy>:
4000304c:	b480      	push	{r7}
4000304e:	b087      	sub	sp, #28
40003050:	af00      	add	r7, sp, #0
40003052:	60f8      	str	r0, [r7, #12]
40003054:	60b9      	str	r1, [r7, #8]
40003056:	607a      	str	r2, [r7, #4]
40003058:	68fb      	ldr	r3, [r7, #12]
4000305a:	617b      	str	r3, [r7, #20]
4000305c:	68bb      	ldr	r3, [r7, #8]
4000305e:	613b      	str	r3, [r7, #16]
40003060:	e00a      	b.n	40003078 <memcpy+0x2c>
40003062:	697b      	ldr	r3, [r7, #20]
40003064:	1c5a      	adds	r2, r3, #1
40003066:	617a      	str	r2, [r7, #20]
40003068:	693a      	ldr	r2, [r7, #16]
4000306a:	1c51      	adds	r1, r2, #1
4000306c:	6139      	str	r1, [r7, #16]
4000306e:	7812      	ldrb	r2, [r2, #0]
40003070:	701a      	strb	r2, [r3, #0]
40003072:	687b      	ldr	r3, [r7, #4]
40003074:	3b01      	subs	r3, #1
40003076:	607b      	str	r3, [r7, #4]
40003078:	687b      	ldr	r3, [r7, #4]
4000307a:	2b00      	cmp	r3, #0
4000307c:	d1f1      	bne.n	40003062 <memcpy+0x16>
4000307e:	371c      	adds	r7, #28
40003080:	46bd      	mov	sp, r7
40003082:	f85d 7b04 	ldr.w	r7, [sp], #4
40003086:	4770      	bx	lr

40003088 <vtsprintf>:
40003088:	b580      	push	{r7, lr}
4000308a:	b08a      	sub	sp, #40	; 0x28
4000308c:	af02      	add	r7, sp, #8
4000308e:	60f8      	str	r0, [r7, #12]
40003090:	60b9      	str	r1, [r7, #8]
40003092:	607a      	str	r2, [r7, #4]
40003094:	2300      	movs	r3, #0
40003096:	61bb      	str	r3, [r7, #24]
40003098:	2300      	movs	r3, #0
4000309a:	61fb      	str	r3, [r7, #28]
4000309c:	e0c6      	b.n	4000322c <vtsprintf+0x1a4>
4000309e:	68bb      	ldr	r3, [r7, #8]
400030a0:	781b      	ldrb	r3, [r3, #0]
400030a2:	2b25      	cmp	r3, #37	; 0x25
400030a4:	f040 80b7 	bne.w	40003216 <vtsprintf+0x18e>
400030a8:	2300      	movs	r3, #0
400030aa:	613b      	str	r3, [r7, #16]
400030ac:	693b      	ldr	r3, [r7, #16]
400030ae:	617b      	str	r3, [r7, #20]
400030b0:	68bb      	ldr	r3, [r7, #8]
400030b2:	3301      	adds	r3, #1
400030b4:	60bb      	str	r3, [r7, #8]
400030b6:	68bb      	ldr	r3, [r7, #8]
400030b8:	781b      	ldrb	r3, [r3, #0]
400030ba:	2b30      	cmp	r3, #48	; 0x30
400030bc:	d104      	bne.n	400030c8 <vtsprintf+0x40>
400030be:	68bb      	ldr	r3, [r7, #8]
400030c0:	3301      	adds	r3, #1
400030c2:	60bb      	str	r3, [r7, #8]
400030c4:	2301      	movs	r3, #1
400030c6:	617b      	str	r3, [r7, #20]
400030c8:	68bb      	ldr	r3, [r7, #8]
400030ca:	781b      	ldrb	r3, [r3, #0]
400030cc:	2b2f      	cmp	r3, #47	; 0x2f
400030ce:	d909      	bls.n	400030e4 <vtsprintf+0x5c>
400030d0:	68bb      	ldr	r3, [r7, #8]
400030d2:	781b      	ldrb	r3, [r3, #0]
400030d4:	2b39      	cmp	r3, #57	; 0x39
400030d6:	d805      	bhi.n	400030e4 <vtsprintf+0x5c>
400030d8:	68bb      	ldr	r3, [r7, #8]
400030da:	1c5a      	adds	r2, r3, #1
400030dc:	60ba      	str	r2, [r7, #8]
400030de:	781b      	ldrb	r3, [r3, #0]
400030e0:	3b30      	subs	r3, #48	; 0x30
400030e2:	613b      	str	r3, [r7, #16]
400030e4:	68bb      	ldr	r3, [r7, #8]
400030e6:	781b      	ldrb	r3, [r3, #0]
400030e8:	3b58      	subs	r3, #88	; 0x58
400030ea:	2b20      	cmp	r3, #32
400030ec:	d87d      	bhi.n	400031ea <vtsprintf+0x162>
400030ee:	a201      	add	r2, pc, #4	; (adr r2, 400030f4 <vtsprintf+0x6c>)
400030f0:	f852 f023 	ldr.w	pc, [r2, r3, lsl #2]
400030f4:	400031a9 	.word	0x400031a9
400030f8:	400031eb 	.word	0x400031eb
400030fc:	400031eb 	.word	0x400031eb
40003100:	400031eb 	.word	0x400031eb
40003104:	400031eb 	.word	0x400031eb
40003108:	400031eb 	.word	0x400031eb
4000310c:	400031eb 	.word	0x400031eb
40003110:	400031eb 	.word	0x400031eb
40003114:	400031eb 	.word	0x400031eb
40003118:	400031eb 	.word	0x400031eb
4000311c:	400031eb 	.word	0x400031eb
40003120:	400031c3 	.word	0x400031c3
40003124:	40003179 	.word	0x40003179
40003128:	400031eb 	.word	0x400031eb
4000312c:	400031eb 	.word	0x400031eb
40003130:	400031eb 	.word	0x400031eb
40003134:	400031eb 	.word	0x400031eb
40003138:	400031eb 	.word	0x400031eb
4000313c:	400031eb 	.word	0x400031eb
40003140:	400031eb 	.word	0x400031eb
40003144:	400031eb 	.word	0x400031eb
40003148:	400031eb 	.word	0x400031eb
4000314c:	400031eb 	.word	0x400031eb
40003150:	400031eb 	.word	0x400031eb
40003154:	400031eb 	.word	0x400031eb
40003158:	400031eb 	.word	0x400031eb
4000315c:	400031eb 	.word	0x400031eb
40003160:	400031d7 	.word	0x400031d7
40003164:	400031eb 	.word	0x400031eb
40003168:	400031eb 	.word	0x400031eb
4000316c:	400031eb 	.word	0x400031eb
40003170:	400031eb 	.word	0x400031eb
40003174:	4000318f 	.word	0x4000318f
40003178:	687b      	ldr	r3, [r7, #4]
4000317a:	1d1a      	adds	r2, r3, #4
4000317c:	607a      	str	r2, [r7, #4]
4000317e:	6818      	ldr	r0, [r3, #0]
40003180:	693b      	ldr	r3, [r7, #16]
40003182:	697a      	ldr	r2, [r7, #20]
40003184:	68f9      	ldr	r1, [r7, #12]
40003186:	f000 f85f 	bl	40003248 <tsprintf_decimal>
4000318a:	61b8      	str	r0, [r7, #24]
4000318c:	e037      	b.n	400031fe <vtsprintf+0x176>
4000318e:	687b      	ldr	r3, [r7, #4]
40003190:	1d1a      	adds	r2, r3, #4
40003192:	607a      	str	r2, [r7, #4]
40003194:	6818      	ldr	r0, [r3, #0]
40003196:	693b      	ldr	r3, [r7, #16]
40003198:	9300      	str	r3, [sp, #0]
4000319a:	697b      	ldr	r3, [r7, #20]
4000319c:	2200      	movs	r2, #0
4000319e:	68f9      	ldr	r1, [r7, #12]
400031a0:	f000 f8f8 	bl	40003394 <tsprintf_hexadecimal>
400031a4:	61b8      	str	r0, [r7, #24]
400031a6:	e02a      	b.n	400031fe <vtsprintf+0x176>
400031a8:	687b      	ldr	r3, [r7, #4]
400031aa:	1d1a      	adds	r2, r3, #4
400031ac:	607a      	str	r2, [r7, #4]
400031ae:	6818      	ldr	r0, [r3, #0]
400031b0:	693b      	ldr	r3, [r7, #16]
400031b2:	9300      	str	r3, [sp, #0]
400031b4:	697b      	ldr	r3, [r7, #20]
400031b6:	2201      	movs	r2, #1
400031b8:	68f9      	ldr	r1, [r7, #12]
400031ba:	f000 f8eb 	bl	40003394 <tsprintf_hexadecimal>
400031be:	61b8      	str	r0, [r7, #24]
400031c0:	e01d      	b.n	400031fe <vtsprintf+0x176>
400031c2:	687b      	ldr	r3, [r7, #4]
400031c4:	1d1a      	adds	r2, r3, #4
400031c6:	607a      	str	r2, [r7, #4]
400031c8:	681b      	ldr	r3, [r3, #0]
400031ca:	68f9      	ldr	r1, [r7, #12]
400031cc:	4618      	mov	r0, r3
400031ce:	f000 f95b 	bl	40003488 <tsprintf_char>
400031d2:	61b8      	str	r0, [r7, #24]
400031d4:	e013      	b.n	400031fe <vtsprintf+0x176>
400031d6:	687b      	ldr	r3, [r7, #4]
400031d8:	1d1a      	adds	r2, r3, #4
400031da:	607a      	str	r2, [r7, #4]
400031dc:	681b      	ldr	r3, [r3, #0]
400031de:	68f9      	ldr	r1, [r7, #12]
400031e0:	4618      	mov	r0, r3
400031e2:	f000 f961 	bl	400034a8 <tsprintf_string>
400031e6:	61b8      	str	r0, [r7, #24]
400031e8:	e009      	b.n	400031fe <vtsprintf+0x176>
400031ea:	69fb      	ldr	r3, [r7, #28]
400031ec:	3301      	adds	r3, #1
400031ee:	61fb      	str	r3, [r7, #28]
400031f0:	68fb      	ldr	r3, [r7, #12]
400031f2:	1c5a      	adds	r2, r3, #1
400031f4:	60fa      	str	r2, [r7, #12]
400031f6:	68ba      	ldr	r2, [r7, #8]
400031f8:	7812      	ldrb	r2, [r2, #0]
400031fa:	701a      	strb	r2, [r3, #0]
400031fc:	bf00      	nop
400031fe:	69fa      	ldr	r2, [r7, #28]
40003200:	69bb      	ldr	r3, [r7, #24]
40003202:	4413      	add	r3, r2
40003204:	61fb      	str	r3, [r7, #28]
40003206:	69bb      	ldr	r3, [r7, #24]
40003208:	68fa      	ldr	r2, [r7, #12]
4000320a:	4413      	add	r3, r2
4000320c:	60fb      	str	r3, [r7, #12]
4000320e:	68bb      	ldr	r3, [r7, #8]
40003210:	3301      	adds	r3, #1
40003212:	60bb      	str	r3, [r7, #8]
40003214:	e00a      	b.n	4000322c <vtsprintf+0x1a4>
40003216:	68fb      	ldr	r3, [r7, #12]
40003218:	1c5a      	adds	r2, r3, #1
4000321a:	60fa      	str	r2, [r7, #12]
4000321c:	68ba      	ldr	r2, [r7, #8]
4000321e:	1c51      	adds	r1, r2, #1
40003220:	60b9      	str	r1, [r7, #8]
40003222:	7812      	ldrb	r2, [r2, #0]
40003224:	701a      	strb	r2, [r3, #0]
40003226:	69fb      	ldr	r3, [r7, #28]
40003228:	3301      	adds	r3, #1
4000322a:	61fb      	str	r3, [r7, #28]
4000322c:	68bb      	ldr	r3, [r7, #8]
4000322e:	781b      	ldrb	r3, [r3, #0]
40003230:	2b00      	cmp	r3, #0
40003232:	f47f af34 	bne.w	4000309e <vtsprintf+0x16>
40003236:	68fb      	ldr	r3, [r7, #12]
40003238:	2200      	movs	r2, #0
4000323a:	701a      	strb	r2, [r3, #0]
4000323c:	69fb      	ldr	r3, [r7, #28]
4000323e:	4618      	mov	r0, r3
40003240:	3720      	adds	r7, #32
40003242:	46bd      	mov	sp, r7
40003244:	bd80      	pop	{r7, pc}
40003246:	bf00      	nop

40003248 <tsprintf_decimal>:
40003248:	b490      	push	{r4, r7}
4000324a:	b08c      	sub	sp, #48	; 0x30
4000324c:	af00      	add	r7, sp, #0
4000324e:	60f8      	str	r0, [r7, #12]
40003250:	60b9      	str	r1, [r7, #8]
40003252:	607a      	str	r2, [r7, #4]
40003254:	603b      	str	r3, [r7, #0]
40003256:	f107 0314 	add.w	r3, r7, #20
4000325a:	330a      	adds	r3, #10
4000325c:	62bb      	str	r3, [r7, #40]	; 0x28
4000325e:	2300      	movs	r3, #0
40003260:	627b      	str	r3, [r7, #36]	; 0x24
40003262:	2300      	movs	r3, #0
40003264:	623b      	str	r3, [r7, #32]
40003266:	68fb      	ldr	r3, [r7, #12]
40003268:	2b00      	cmp	r3, #0
4000326a:	d108      	bne.n	4000327e <tsprintf_decimal+0x36>
4000326c:	6abb      	ldr	r3, [r7, #40]	; 0x28
4000326e:	1e5a      	subs	r2, r3, #1
40003270:	62ba      	str	r2, [r7, #40]	; 0x28
40003272:	2230      	movs	r2, #48	; 0x30
40003274:	701a      	strb	r2, [r3, #0]
40003276:	6a7b      	ldr	r3, [r7, #36]	; 0x24
40003278:	3301      	adds	r3, #1
4000327a:	627b      	str	r3, [r7, #36]	; 0x24
4000327c:	e036      	b.n	400032ec <tsprintf_decimal+0xa4>
4000327e:	68fb      	ldr	r3, [r7, #12]
40003280:	2b00      	cmp	r3, #0
40003282:	da07      	bge.n	40003294 <tsprintf_decimal+0x4c>
40003284:	68fb      	ldr	r3, [r7, #12]
40003286:	43db      	mvns	r3, r3
40003288:	60fb      	str	r3, [r7, #12]
4000328a:	68fb      	ldr	r3, [r7, #12]
4000328c:	3301      	adds	r3, #1
4000328e:	60fb      	str	r3, [r7, #12]
40003290:	2301      	movs	r3, #1
40003292:	623b      	str	r3, [r7, #32]
40003294:	e027      	b.n	400032e6 <tsprintf_decimal+0x9e>
40003296:	6a7b      	ldr	r3, [r7, #36]	; 0x24
40003298:	2b07      	cmp	r3, #7
4000329a:	dd00      	ble.n	4000329e <tsprintf_decimal+0x56>
4000329c:	e026      	b.n	400032ec <tsprintf_decimal+0xa4>
4000329e:	68fb      	ldr	r3, [r7, #12]
400032a0:	f246 6267 	movw	r2, #26215	; 0x6667
400032a4:	f2c6 6266 	movt	r2, #26214	; 0x6666
400032a8:	fb83 1202 	smull	r1, r2, r3, r2
400032ac:	1091      	asrs	r1, r2, #2
400032ae:	17da      	asrs	r2, r3, #31
400032b0:	1a8a      	subs	r2, r1, r2
400032b2:	210a      	movs	r1, #10
400032b4:	fb01 f202 	mul.w	r2, r1, r2
400032b8:	1a9a      	subs	r2, r3, r2
400032ba:	b2d3      	uxtb	r3, r2
400032bc:	3330      	adds	r3, #48	; 0x30
400032be:	b2da      	uxtb	r2, r3
400032c0:	6abb      	ldr	r3, [r7, #40]	; 0x28
400032c2:	701a      	strb	r2, [r3, #0]
400032c4:	68fa      	ldr	r2, [r7, #12]
400032c6:	f246 6367 	movw	r3, #26215	; 0x6667
400032ca:	f2c6 6366 	movt	r3, #26214	; 0x6666
400032ce:	fb82 3403 	smull	r3, r4, r2, r3
400032d2:	10a1      	asrs	r1, r4, #2
400032d4:	17d3      	asrs	r3, r2, #31
400032d6:	1acb      	subs	r3, r1, r3
400032d8:	60fb      	str	r3, [r7, #12]
400032da:	6abb      	ldr	r3, [r7, #40]	; 0x28
400032dc:	3b01      	subs	r3, #1
400032de:	62bb      	str	r3, [r7, #40]	; 0x28
400032e0:	6a7b      	ldr	r3, [r7, #36]	; 0x24
400032e2:	3301      	adds	r3, #1
400032e4:	627b      	str	r3, [r7, #36]	; 0x24
400032e6:	68fb      	ldr	r3, [r7, #12]
400032e8:	2b00      	cmp	r3, #0
400032ea:	d1d4      	bne.n	40003296 <tsprintf_decimal+0x4e>
400032ec:	687b      	ldr	r3, [r7, #4]
400032ee:	2b00      	cmp	r3, #0
400032f0:	d01e      	beq.n	40003330 <tsprintf_decimal+0xe8>
400032f2:	6a3b      	ldr	r3, [r7, #32]
400032f4:	2b00      	cmp	r3, #0
400032f6:	d002      	beq.n	400032fe <tsprintf_decimal+0xb6>
400032f8:	683b      	ldr	r3, [r7, #0]
400032fa:	3b01      	subs	r3, #1
400032fc:	603b      	str	r3, [r7, #0]
400032fe:	e007      	b.n	40003310 <tsprintf_decimal+0xc8>
40003300:	6abb      	ldr	r3, [r7, #40]	; 0x28
40003302:	1e5a      	subs	r2, r3, #1
40003304:	62ba      	str	r2, [r7, #40]	; 0x28
40003306:	2230      	movs	r2, #48	; 0x30
40003308:	701a      	strb	r2, [r3, #0]
4000330a:	6a7b      	ldr	r3, [r7, #36]	; 0x24
4000330c:	3301      	adds	r3, #1
4000330e:	627b      	str	r3, [r7, #36]	; 0x24
40003310:	6a7a      	ldr	r2, [r7, #36]	; 0x24
40003312:	683b      	ldr	r3, [r7, #0]
40003314:	429a      	cmp	r2, r3
40003316:	dbf3      	blt.n	40003300 <tsprintf_decimal+0xb8>
40003318:	6a3b      	ldr	r3, [r7, #32]
4000331a:	2b00      	cmp	r3, #0
4000331c:	d020      	beq.n	40003360 <tsprintf_decimal+0x118>
4000331e:	6abb      	ldr	r3, [r7, #40]	; 0x28
40003320:	1e5a      	subs	r2, r3, #1
40003322:	62ba      	str	r2, [r7, #40]	; 0x28
40003324:	222d      	movs	r2, #45	; 0x2d
40003326:	701a      	strb	r2, [r3, #0]
40003328:	6a7b      	ldr	r3, [r7, #36]	; 0x24
4000332a:	3301      	adds	r3, #1
4000332c:	627b      	str	r3, [r7, #36]	; 0x24
4000332e:	e017      	b.n	40003360 <tsprintf_decimal+0x118>
40003330:	6a3b      	ldr	r3, [r7, #32]
40003332:	2b00      	cmp	r3, #0
40003334:	d007      	beq.n	40003346 <tsprintf_decimal+0xfe>
40003336:	6abb      	ldr	r3, [r7, #40]	; 0x28
40003338:	1e5a      	subs	r2, r3, #1
4000333a:	62ba      	str	r2, [r7, #40]	; 0x28
4000333c:	222d      	movs	r2, #45	; 0x2d
4000333e:	701a      	strb	r2, [r3, #0]
40003340:	6a7b      	ldr	r3, [r7, #36]	; 0x24
40003342:	3301      	adds	r3, #1
40003344:	627b      	str	r3, [r7, #36]	; 0x24
40003346:	e007      	b.n	40003358 <tsprintf_decimal+0x110>
40003348:	6abb      	ldr	r3, [r7, #40]	; 0x28
4000334a:	1e5a      	subs	r2, r3, #1
4000334c:	62ba      	str	r2, [r7, #40]	; 0x28
4000334e:	2220      	movs	r2, #32
40003350:	701a      	strb	r2, [r3, #0]
40003352:	6a7b      	ldr	r3, [r7, #36]	; 0x24
40003354:	3301      	adds	r3, #1
40003356:	627b      	str	r3, [r7, #36]	; 0x24
40003358:	6a7a      	ldr	r2, [r7, #36]	; 0x24
4000335a:	683b      	ldr	r3, [r7, #0]
4000335c:	429a      	cmp	r2, r3
4000335e:	dbf3      	blt.n	40003348 <tsprintf_decimal+0x100>
40003360:	2300      	movs	r3, #0
40003362:	62fb      	str	r3, [r7, #44]	; 0x2c
40003364:	e00b      	b.n	4000337e <tsprintf_decimal+0x136>
40003366:	68bb      	ldr	r3, [r7, #8]
40003368:	1c5a      	adds	r2, r3, #1
4000336a:	60ba      	str	r2, [r7, #8]
4000336c:	6aba      	ldr	r2, [r7, #40]	; 0x28
4000336e:	3201      	adds	r2, #1
40003370:	62ba      	str	r2, [r7, #40]	; 0x28
40003372:	6aba      	ldr	r2, [r7, #40]	; 0x28
40003374:	7812      	ldrb	r2, [r2, #0]
40003376:	701a      	strb	r2, [r3, #0]
40003378:	6afb      	ldr	r3, [r7, #44]	; 0x2c
4000337a:	3301      	adds	r3, #1
4000337c:	62fb      	str	r3, [r7, #44]	; 0x2c
4000337e:	6afa      	ldr	r2, [r7, #44]	; 0x2c
40003380:	6a7b      	ldr	r3, [r7, #36]	; 0x24
40003382:	429a      	cmp	r2, r3
40003384:	dbef      	blt.n	40003366 <tsprintf_decimal+0x11e>
40003386:	6a7b      	ldr	r3, [r7, #36]	; 0x24
40003388:	4618      	mov	r0, r3
4000338a:	3730      	adds	r7, #48	; 0x30
4000338c:	46bd      	mov	sp, r7
4000338e:	bc90      	pop	{r4, r7}
40003390:	4770      	bx	lr
40003392:	bf00      	nop

40003394 <tsprintf_hexadecimal>:
40003394:	b480      	push	{r7}
40003396:	b08b      	sub	sp, #44	; 0x2c
40003398:	af00      	add	r7, sp, #0
4000339a:	60f8      	str	r0, [r7, #12]
4000339c:	60b9      	str	r1, [r7, #8]
4000339e:	607a      	str	r2, [r7, #4]
400033a0:	603b      	str	r3, [r7, #0]
400033a2:	f107 0310 	add.w	r3, r7, #16
400033a6:	330a      	adds	r3, #10
400033a8:	623b      	str	r3, [r7, #32]
400033aa:	2300      	movs	r3, #0
400033ac:	61fb      	str	r3, [r7, #28]
400033ae:	687b      	ldr	r3, [r7, #4]
400033b0:	2b00      	cmp	r3, #0
400033b2:	d002      	beq.n	400033ba <tsprintf_hexadecimal+0x26>
400033b4:	2341      	movs	r3, #65	; 0x41
400033b6:	76fb      	strb	r3, [r7, #27]
400033b8:	e001      	b.n	400033be <tsprintf_hexadecimal+0x2a>
400033ba:	2361      	movs	r3, #97	; 0x61
400033bc:	76fb      	strb	r3, [r7, #27]
400033be:	68fb      	ldr	r3, [r7, #12]
400033c0:	2b00      	cmp	r3, #0
400033c2:	d108      	bne.n	400033d6 <tsprintf_hexadecimal+0x42>
400033c4:	6a3b      	ldr	r3, [r7, #32]
400033c6:	1e5a      	subs	r2, r3, #1
400033c8:	623a      	str	r2, [r7, #32]
400033ca:	2230      	movs	r2, #48	; 0x30
400033cc:	701a      	strb	r2, [r3, #0]
400033ce:	69fb      	ldr	r3, [r7, #28]
400033d0:	3301      	adds	r3, #1
400033d2:	61fb      	str	r3, [r7, #28]
400033d4:	e02b      	b.n	4000342e <tsprintf_hexadecimal+0x9a>
400033d6:	e027      	b.n	40003428 <tsprintf_hexadecimal+0x94>
400033d8:	69fb      	ldr	r3, [r7, #28]
400033da:	2b07      	cmp	r3, #7
400033dc:	dd00      	ble.n	400033e0 <tsprintf_hexadecimal+0x4c>
400033de:	e026      	b.n	4000342e <tsprintf_hexadecimal+0x9a>
400033e0:	68fb      	ldr	r3, [r7, #12]
400033e2:	b2db      	uxtb	r3, r3
400033e4:	f003 030f 	and.w	r3, r3, #15
400033e8:	b2da      	uxtb	r2, r3
400033ea:	6a3b      	ldr	r3, [r7, #32]
400033ec:	701a      	strb	r2, [r3, #0]
400033ee:	6a3b      	ldr	r3, [r7, #32]
400033f0:	781b      	ldrb	r3, [r3, #0]
400033f2:	2b09      	cmp	r3, #9
400033f4:	d909      	bls.n	4000340a <tsprintf_hexadecimal+0x76>
400033f6:	6a3b      	ldr	r3, [r7, #32]
400033f8:	781a      	ldrb	r2, [r3, #0]
400033fa:	7efb      	ldrb	r3, [r7, #27]
400033fc:	4413      	add	r3, r2
400033fe:	b2db      	uxtb	r3, r3
40003400:	3b0a      	subs	r3, #10
40003402:	b2da      	uxtb	r2, r3
40003404:	6a3b      	ldr	r3, [r7, #32]
40003406:	701a      	strb	r2, [r3, #0]
40003408:	e005      	b.n	40003416 <tsprintf_hexadecimal+0x82>
4000340a:	6a3b      	ldr	r3, [r7, #32]
4000340c:	781b      	ldrb	r3, [r3, #0]
4000340e:	3330      	adds	r3, #48	; 0x30
40003410:	b2da      	uxtb	r2, r3
40003412:	6a3b      	ldr	r3, [r7, #32]
40003414:	701a      	strb	r2, [r3, #0]
40003416:	68fb      	ldr	r3, [r7, #12]
40003418:	091b      	lsrs	r3, r3, #4
4000341a:	60fb      	str	r3, [r7, #12]
4000341c:	6a3b      	ldr	r3, [r7, #32]
4000341e:	3b01      	subs	r3, #1
40003420:	623b      	str	r3, [r7, #32]
40003422:	69fb      	ldr	r3, [r7, #28]
40003424:	3301      	adds	r3, #1
40003426:	61fb      	str	r3, [r7, #28]
40003428:	68fb      	ldr	r3, [r7, #12]
4000342a:	2b00      	cmp	r3, #0
4000342c:	d1d4      	bne.n	400033d8 <tsprintf_hexadecimal+0x44>
4000342e:	e00c      	b.n	4000344a <tsprintf_hexadecimal+0xb6>
40003430:	6a3b      	ldr	r3, [r7, #32]
40003432:	1e5a      	subs	r2, r3, #1
40003434:	623a      	str	r2, [r7, #32]
40003436:	683a      	ldr	r2, [r7, #0]
40003438:	2a00      	cmp	r2, #0
4000343a:	d001      	beq.n	40003440 <tsprintf_hexadecimal+0xac>
4000343c:	2230      	movs	r2, #48	; 0x30
4000343e:	e000      	b.n	40003442 <tsprintf_hexadecimal+0xae>
40003440:	2220      	movs	r2, #32
40003442:	701a      	strb	r2, [r3, #0]
40003444:	69fb      	ldr	r3, [r7, #28]
40003446:	3301      	adds	r3, #1
40003448:	61fb      	str	r3, [r7, #28]
4000344a:	69fa      	ldr	r2, [r7, #28]
4000344c:	6b3b      	ldr	r3, [r7, #48]	; 0x30
4000344e:	429a      	cmp	r2, r3
40003450:	dbee      	blt.n	40003430 <tsprintf_hexadecimal+0x9c>
40003452:	2300      	movs	r3, #0
40003454:	627b      	str	r3, [r7, #36]	; 0x24
40003456:	e00b      	b.n	40003470 <tsprintf_hexadecimal+0xdc>
40003458:	68bb      	ldr	r3, [r7, #8]
4000345a:	1c5a      	adds	r2, r3, #1
4000345c:	60ba      	str	r2, [r7, #8]
4000345e:	6a3a      	ldr	r2, [r7, #32]
40003460:	3201      	adds	r2, #1
40003462:	623a      	str	r2, [r7, #32]
40003464:	6a3a      	ldr	r2, [r7, #32]
40003466:	7812      	ldrb	r2, [r2, #0]
40003468:	701a      	strb	r2, [r3, #0]
4000346a:	6a7b      	ldr	r3, [r7, #36]	; 0x24
4000346c:	3301      	adds	r3, #1
4000346e:	627b      	str	r3, [r7, #36]	; 0x24
40003470:	6a7a      	ldr	r2, [r7, #36]	; 0x24
40003472:	69fb      	ldr	r3, [r7, #28]
40003474:	429a      	cmp	r2, r3
40003476:	dbef      	blt.n	40003458 <tsprintf_hexadecimal+0xc4>
40003478:	69fb      	ldr	r3, [r7, #28]
4000347a:	4618      	mov	r0, r3
4000347c:	372c      	adds	r7, #44	; 0x2c
4000347e:	46bd      	mov	sp, r7
40003480:	f85d 7b04 	ldr.w	r7, [sp], #4
40003484:	4770      	bx	lr
40003486:	bf00      	nop

40003488 <tsprintf_char>:
40003488:	b480      	push	{r7}
4000348a:	b083      	sub	sp, #12
4000348c:	af00      	add	r7, sp, #0
4000348e:	6078      	str	r0, [r7, #4]
40003490:	6039      	str	r1, [r7, #0]
40003492:	687b      	ldr	r3, [r7, #4]
40003494:	b2da      	uxtb	r2, r3
40003496:	683b      	ldr	r3, [r7, #0]
40003498:	701a      	strb	r2, [r3, #0]
4000349a:	2301      	movs	r3, #1
4000349c:	4618      	mov	r0, r3
4000349e:	370c      	adds	r7, #12
400034a0:	46bd      	mov	sp, r7
400034a2:	f85d 7b04 	ldr.w	r7, [sp], #4
400034a6:	4770      	bx	lr

400034a8 <tsprintf_string>:
400034a8:	b480      	push	{r7}
400034aa:	b085      	sub	sp, #20
400034ac:	af00      	add	r7, sp, #0
400034ae:	6078      	str	r0, [r7, #4]
400034b0:	6039      	str	r1, [r7, #0]
400034b2:	2300      	movs	r3, #0
400034b4:	60fb      	str	r3, [r7, #12]
400034b6:	e00b      	b.n	400034d0 <tsprintf_string+0x28>
400034b8:	683b      	ldr	r3, [r7, #0]
400034ba:	1c5a      	adds	r2, r3, #1
400034bc:	603a      	str	r2, [r7, #0]
400034be:	687a      	ldr	r2, [r7, #4]
400034c0:	7812      	ldrb	r2, [r2, #0]
400034c2:	701a      	strb	r2, [r3, #0]
400034c4:	687b      	ldr	r3, [r7, #4]
400034c6:	3301      	adds	r3, #1
400034c8:	607b      	str	r3, [r7, #4]
400034ca:	68fb      	ldr	r3, [r7, #12]
400034cc:	3301      	adds	r3, #1
400034ce:	60fb      	str	r3, [r7, #12]
400034d0:	687b      	ldr	r3, [r7, #4]
400034d2:	781b      	ldrb	r3, [r3, #0]
400034d4:	2b00      	cmp	r3, #0
400034d6:	d1ef      	bne.n	400034b8 <tsprintf_string+0x10>
400034d8:	68fb      	ldr	r3, [r7, #12]
400034da:	4618      	mov	r0, r3
400034dc:	3714      	adds	r7, #20
400034de:	46bd      	mov	sp, r7
400034e0:	f85d 7b04 	ldr.w	r7, [sp], #4
400034e4:	4770      	bx	lr
400034e6:	bf00      	nop

400034e8 <tsprintf>:
400034e8:	b40e      	push	{r1, r2, r3}
400034ea:	b580      	push	{r7, lr}
400034ec:	b087      	sub	sp, #28
400034ee:	af00      	add	r7, sp, #0
400034f0:	6078      	str	r0, [r7, #4]
400034f2:	2300      	movs	r3, #0
400034f4:	617b      	str	r3, [r7, #20]
400034f6:	2300      	movs	r3, #0
400034f8:	613b      	str	r3, [r7, #16]
400034fa:	f107 0328 	add.w	r3, r7, #40	; 0x28
400034fe:	60fb      	str	r3, [r7, #12]
40003500:	68fa      	ldr	r2, [r7, #12]
40003502:	6a79      	ldr	r1, [r7, #36]	; 0x24
40003504:	6878      	ldr	r0, [r7, #4]
40003506:	f7ff fdbf 	bl	40003088 <vtsprintf>
4000350a:	4618      	mov	r0, r3
4000350c:	371c      	adds	r7, #28
4000350e:	46bd      	mov	sp, r7
40003510:	e8bd 4080 	ldmia.w	sp!, {r7, lr}
40003514:	b003      	add	sp, #12
40003516:	4770      	bx	lr

40003518 <lprintf_init>:
40003518:	b580      	push	{r7, lr}
4000351a:	af00      	add	r7, sp, #0
4000351c:	f000 fa70 	bl	40003a00 <mutex_create>
40003520:	4602      	mov	r2, r0
40003522:	f644 23a0 	movw	r3, #19104	; 0x4aa0
40003526:	f2c4 0300 	movt	r3, #16384	; 0x4000
4000352a:	601a      	str	r2, [r3, #0]
4000352c:	f7fc fea4 	bl	40000278 <debug_print_init>
40003530:	bd80      	pop	{r7, pc}
40003532:	bf00      	nop

40003534 <tprintf>:
40003534:	b40f      	push	{r0, r1, r2, r3}
40003536:	b580      	push	{r7, lr}
40003538:	b084      	sub	sp, #16
4000353a:	af00      	add	r7, sp, #0
4000353c:	2300      	movs	r3, #0
4000353e:	60fb      	str	r3, [r7, #12]
40003540:	2300      	movs	r3, #0
40003542:	60bb      	str	r3, [r7, #8]
40003544:	f107 031c 	add.w	r3, r7, #28
40003548:	607b      	str	r3, [r7, #4]
4000354a:	687a      	ldr	r2, [r7, #4]
4000354c:	69b9      	ldr	r1, [r7, #24]
4000354e:	f644 20a4 	movw	r0, #19108	; 0x4aa4
40003552:	f2c4 0000 	movt	r0, #16384	; 0x4000
40003556:	f7ff fd97 	bl	40003088 <vtsprintf>
4000355a:	f644 20a4 	movw	r0, #19108	; 0x4aa4
4000355e:	f2c4 0000 	movt	r0, #16384	; 0x4000
40003562:	f7fc fe67 	bl	40000234 <debug_print>
40003566:	4618      	mov	r0, r3
40003568:	3710      	adds	r7, #16
4000356a:	46bd      	mov	sp, r7
4000356c:	e8bd 4080 	ldmia.w	sp!, {r7, lr}
40003570:	b004      	add	sp, #16
40003572:	4770      	bx	lr

40003574 <lprintf>:
40003574:	b40f      	push	{r0, r1, r2, r3}
40003576:	b580      	push	{r7, lr}
40003578:	b084      	sub	sp, #16
4000357a:	af00      	add	r7, sp, #0
4000357c:	2300      	movs	r3, #0
4000357e:	60fb      	str	r3, [r7, #12]
40003580:	2300      	movs	r3, #0
40003582:	60bb      	str	r3, [r7, #8]
40003584:	f107 031c 	add.w	r3, r7, #28
40003588:	607b      	str	r3, [r7, #4]
4000358a:	f644 23a0 	movw	r3, #19104	; 0x4aa0
4000358e:	f2c4 0300 	movt	r3, #16384	; 0x4000
40003592:	681b      	ldr	r3, [r3, #0]
40003594:	4618      	mov	r0, r3
40003596:	f000 fa3d 	bl	40003a14 <mutex_lock>
4000359a:	687a      	ldr	r2, [r7, #4]
4000359c:	69b9      	ldr	r1, [r7, #24]
4000359e:	f644 60a4 	movw	r0, #20132	; 0x4ea4
400035a2:	f2c4 0000 	movt	r0, #16384	; 0x4000
400035a6:	f7ff fd6f 	bl	40003088 <vtsprintf>
400035aa:	f644 60a4 	movw	r0, #20132	; 0x4ea4
400035ae:	f2c4 0000 	movt	r0, #16384	; 0x4000
400035b2:	f7fc fe3f 	bl	40000234 <debug_print>
400035b6:	f644 23a0 	movw	r3, #19104	; 0x4aa0
400035ba:	f2c4 0300 	movt	r3, #16384	; 0x4000
400035be:	681b      	ldr	r3, [r3, #0]
400035c0:	4618      	mov	r0, r3
400035c2:	f000 fa22 	bl	40003a0a <mutex_unlock>
400035c6:	4618      	mov	r0, r3
400035c8:	3710      	adds	r7, #16
400035ca:	46bd      	mov	sp, r7
400035cc:	e8bd 4080 	ldmia.w	sp!, {r7, lr}
400035d0:	b004      	add	sp, #16
400035d2:	4770      	bx	lr

400035d4 <strcpy>:
400035d4:	b480      	push	{r7}
400035d6:	b083      	sub	sp, #12
400035d8:	af00      	add	r7, sp, #0
400035da:	6078      	str	r0, [r7, #4]
400035dc:	6039      	str	r1, [r7, #0]
400035de:	e007      	b.n	400035f0 <strcpy+0x1c>
400035e0:	687b      	ldr	r3, [r7, #4]
400035e2:	1c5a      	adds	r2, r3, #1
400035e4:	607a      	str	r2, [r7, #4]
400035e6:	683a      	ldr	r2, [r7, #0]
400035e8:	1c51      	adds	r1, r2, #1
400035ea:	6039      	str	r1, [r7, #0]
400035ec:	7812      	ldrb	r2, [r2, #0]
400035ee:	701a      	strb	r2, [r3, #0]
400035f0:	683b      	ldr	r3, [r7, #0]
400035f2:	781b      	ldrb	r3, [r3, #0]
400035f4:	2b00      	cmp	r3, #0
400035f6:	d1f3      	bne.n	400035e0 <strcpy+0xc>
400035f8:	687b      	ldr	r3, [r7, #4]
400035fa:	4618      	mov	r0, r3
400035fc:	370c      	adds	r7, #12
400035fe:	46bd      	mov	sp, r7
40003600:	f85d 7b04 	ldr.w	r7, [sp], #4
40003604:	4770      	bx	lr
40003606:	bf00      	nop

40003608 <strncpy>:
40003608:	b480      	push	{r7}
4000360a:	b085      	sub	sp, #20
4000360c:	af00      	add	r7, sp, #0
4000360e:	60f8      	str	r0, [r7, #12]
40003610:	60b9      	str	r1, [r7, #8]
40003612:	607a      	str	r2, [r7, #4]
40003614:	e00a      	b.n	4000362c <strncpy+0x24>
40003616:	68fb      	ldr	r3, [r7, #12]
40003618:	1c5a      	adds	r2, r3, #1
4000361a:	60fa      	str	r2, [r7, #12]
4000361c:	68ba      	ldr	r2, [r7, #8]
4000361e:	1c51      	adds	r1, r2, #1
40003620:	60b9      	str	r1, [r7, #8]
40003622:	7812      	ldrb	r2, [r2, #0]
40003624:	701a      	strb	r2, [r3, #0]
40003626:	687b      	ldr	r3, [r7, #4]
40003628:	3b01      	subs	r3, #1
4000362a:	607b      	str	r3, [r7, #4]
4000362c:	68bb      	ldr	r3, [r7, #8]
4000362e:	781b      	ldrb	r3, [r3, #0]
40003630:	2b00      	cmp	r3, #0
40003632:	d002      	beq.n	4000363a <strncpy+0x32>
40003634:	687b      	ldr	r3, [r7, #4]
40003636:	2b00      	cmp	r3, #0
40003638:	d1ed      	bne.n	40003616 <strncpy+0xe>
4000363a:	687b      	ldr	r3, [r7, #4]
4000363c:	2b00      	cmp	r3, #0
4000363e:	d002      	beq.n	40003646 <strncpy+0x3e>
40003640:	68fb      	ldr	r3, [r7, #12]
40003642:	2200      	movs	r2, #0
40003644:	701a      	strb	r2, [r3, #0]
40003646:	68fb      	ldr	r3, [r7, #12]
40003648:	4618      	mov	r0, r3
4000364a:	3714      	adds	r7, #20
4000364c:	46bd      	mov	sp, r7
4000364e:	f85d 7b04 	ldr.w	r7, [sp], #4
40003652:	4770      	bx	lr
	...

40003660 <_vector>:
40003660:	f8df f01c 	ldr.w	pc, [pc, #28]	; 40003680 <_reset_vector>
40003664:	f8df f01c 	ldr.w	pc, [pc, #28]	; 40003684 <_undef_vector>
40003668:	f8df f01c 	ldr.w	pc, [pc, #28]	; 40003688 <_svc_vector>
4000366c:	f8df f01c 	ldr.w	pc, [pc, #28]	; 4000368c <_pref_vector>
40003670:	f8df f01c 	ldr.w	pc, [pc, #28]	; 40003690 <_dabort_vector>
40003674:	f8df f01c 	ldr.w	pc, [pc, #28]	; 40003694 <_non_vector>
40003678:	f8df f01c 	ldr.w	pc, [pc, #28]	; 40003698 <_irq_vector>
4000367c:	f8df f01c 	ldr.w	pc, [pc, #28]	; 4000369c <_fiq_vector>

40003680 <_reset_vector>:
40003680:	400036a1 	.word	0x400036a1

40003684 <_undef_vector>:
40003684:	40003861 	.word	0x40003861

40003688 <_svc_vector>:
40003688:	4000393b 	.word	0x4000393b

4000368c <_pref_vector>:
4000368c:	40003869 	.word	0x40003869

40003690 <_dabort_vector>:
40003690:	40003871 	.word	0x40003871

40003694 <_non_vector>:
40003694:	00000000 	.word	0x00000000

40003698 <_irq_vector>:
40003698:	40003897 	.word	0x40003897

4000369c <_fiq_vector>:
4000369c:	40003937 	.word	0x40003937

400036a0 <_reset_entry>:
400036a0:	ee9f 0f10 	mrc	15, 4, r0, cr15, cr0, {0}
400036a4:	4820      	ldr	r0, [pc, #128]	; (40003728 <_loop_+0x2>)
400036a6:	ee0c 0f10 	mcr	15, 0, r0, cr12, cr0, {0}
400036aa:	ee10 2fb0 	mrc	15, 0, r2, cr0, cr0, {5}
400036ae:	f002 02ff 	and.w	r2, r2, #255	; 0xff
400036b2:	481e      	ldr	r0, [pc, #120]	; (4000372c <_loop_+0x6>)
400036b4:	eba0 2082 	sub.w	r0, r0, r2, lsl #10
400036b8:	f380 8730 	msr	SP_und, r0
400036bc:	481c      	ldr	r0, [pc, #112]	; (40003730 <_loop_+0xa>)
400036be:	eba0 2082 	sub.w	r0, r0, r2, lsl #10
400036c2:	f380 8530 	msr	SP_abt, r0
400036c6:	481b      	ldr	r0, [pc, #108]	; (40003734 <_loop_+0xe>)
400036c8:	eba0 2082 	sub.w	r0, r0, r2, lsl #10
400036cc:	f380 8130 	msr	SP_irq, r0
400036d0:	4819      	ldr	r0, [pc, #100]	; (40003738 <_loop_+0x12>)
400036d2:	eba0 2082 	sub.w	r0, r0, r2, lsl #10
400036d6:	f380 8d20 	msr	SP_fiq, r0
400036da:	4818      	ldr	r0, [pc, #96]	; (4000373c <_loop_+0x16>)
400036dc:	eba0 2082 	sub.w	r0, r0, r2, lsl #10
400036e0:	f380 8520 	msr	SP_usr, r0
400036e4:	4816      	ldr	r0, [pc, #88]	; (40003740 <_loop_+0x1a>)
400036e6:	eba0 2082 	sub.w	r0, r0, r2, lsl #10
400036ea:	f380 8330 	msr	SP_svc, r0
400036ee:	ee10 2fb0 	mrc	15, 0, r2, cr0, cr0, {5}
400036f2:	f002 02ff 	and.w	r2, r2, #255	; 0xff
400036f6:	2a00      	cmp	r2, #0
400036f8:	d113      	bne.n	40003722 <_bss_done>
400036fa:	4812      	ldr	r0, [pc, #72]	; (40003744 <_loop_+0x1e>)
400036fc:	4912      	ldr	r1, [pc, #72]	; (40003748 <_loop_+0x22>)
400036fe:	4a13      	ldr	r2, [pc, #76]	; (4000374c <_loop_+0x26>)
40003700:	4288      	cmp	r0, r1
40003702:	d005      	beq.n	40003710 <_data_done>

40003704 <_data_loop>:
40003704:	f850 3b04 	ldr.w	r3, [r0], #4
40003708:	f841 3b04 	str.w	r3, [r1], #4
4000370c:	4291      	cmp	r1, r2
4000370e:	d1f9      	bne.n	40003704 <_data_loop>

40003710 <_data_done>:
40003710:	480f      	ldr	r0, [pc, #60]	; (40003750 <_loop_+0x2a>)
40003712:	4910      	ldr	r1, [pc, #64]	; (40003754 <_loop_+0x2e>)
40003714:	f04f 0200 	mov.w	r2, #0

40003718 <_bss_loop>:
40003718:	4288      	cmp	r0, r1
4000371a:	d002      	beq.n	40003722 <_bss_done>
4000371c:	f840 2b04 	str.w	r2, [r0], #4
40003720:	e7fa      	b.n	40003718 <_bss_loop>

40003722 <_bss_done>:
40003722:	f7fd fbd5 	bl	40000ed0 <startup>

40003726 <_loop_>:
40003726:	e7fe      	b.n	40003726 <_loop_>
40003728:	40003661 	.word	0x40003661
4000372c:	40006800 	.word	0x40006800
40003730:	40008000 	.word	0x40008000
40003734:	40008800 	.word	0x40008800
40003738:	40009000 	.word	0x40009000
4000373c:	40007800 	.word	0x40007800
40003740:	40007000 	.word	0x40007000
40003744:	40004000 	.word	0x40004000
40003748:	40004000 	.word	0x40004000
4000374c:	40004184 	.word	0x40004184
40003750:	40004184 	.word	0x40004184
40003754:	400054f4 	.word	0x400054f4
40003758:	f3af 8000 	nop.w
4000375c:	f3af 8000 	nop.w

40003760 <_dispatch>:
40003760:	b500      	push	{lr}
40003762:	f8df e0f0 	ldr.w	lr, [pc, #240]	; 40003854 <_idle_loop+0x1c>
40003766:	ee10 0fb0 	mrc	15, 0, r0, cr0, cr0, {5}
4000376a:	f000 00ff 	and.w	r0, r0, #255	; 0xff
4000376e:	f85e e020 	ldr.w	lr, [lr, r0, lsl #2]
40003772:	f8de e000 	ldr.w	lr, [lr]
40003776:	f1be 0f00 	cmp.w	lr, #0
4000377a:	bf04      	itt	eq
4000377c:	b001      	addeq	sp, #4
4000377e:	e019      	beq.n	400037b4 <_restore_context>

40003780 <_save_and_restore>:
40003780:	e92d 0ff1 	stmdb	sp!, {r0, r4, r5, r6, r7, r8, r9, sl, fp}
40003784:	eef8 1a10 	vmrs	r1, fpexc
40003788:	b402      	push	{r1}
4000378a:	f011 4f80 	tst.w	r1, #1073741824	; 0x40000000
4000378e:	d008      	beq.n	400037a2 <_no_save_vfp>
40003790:	f8de 100c 	ldr.w	r1, [lr, #12]
40003794:	eca1 0b20 	vstmia	r1!, {d0-d15}
40003798:	ece1 0b20 	vstmia	r1!, {d16-d31}
4000379c:	eef1 0a10 	vmrs	r0, fpscr
400037a0:	6008      	str	r0, [r1, #0]

400037a2 <_no_save_vfp>:
400037a2:	f3f2 8030 	mrs	r0, SPSR_svc
400037a6:	f3e5 8120 	mrs	r1, SP_usr
400037aa:	f3e6 8220 	mrs	r2, LR_usr
400037ae:	b407      	push	{r0, r1, r2}
400037b0:	f8ce d008 	str.w	sp, [lr, #8]

400037b4 <_restore_context>:
400037b4:	f8df e09c 	ldr.w	lr, [pc, #156]	; 40003854 <_idle_loop+0x1c>
400037b8:	ee10 0fb0 	mrc	15, 0, r0, cr0, cr0, {5}
400037bc:	f000 00ff 	and.w	r0, r0, #255	; 0xff
400037c0:	f85e 0020 	ldr.w	r0, [lr, r0, lsl #2]
400037c4:	f8d0 e004 	ldr.w	lr, [r0, #4]
400037c8:	f8c0 e000 	str.w	lr, [r0]
400037cc:	f1be 0f00 	cmp.w	lr, #0
400037d0:	d032      	beq.n	40003838 <_idle_loop>
400037d2:	f8de d008 	ldr.w	sp, [lr, #8]
400037d6:	bc07      	pop	{r0, r1, r2}
400037d8:	f390 8230 	msr	SPSR_svc, r0
400037dc:	f381 8520 	msr	SP_usr, r1
400037e0:	f382 8620 	msr	LR_usr, r2
400037e4:	bc02      	pop	{r1}
400037e6:	eee8 1a10 	vmsr	fpexc, r1
400037ea:	f011 4f80 	tst.w	r1, #1073741824	; 0x40000000
400037ee:	d008      	beq.n	40003802 <_no_load_vfp>
400037f0:	f8de 100c 	ldr.w	r1, [lr, #12]
400037f4:	ecb1 0b20 	vldmia	r1!, {d0-d15}
400037f8:	ecf1 0b20 	vldmia	r1!, {d16-d31}
400037fc:	6808      	ldr	r0, [r1, #0]
400037fe:	eee1 0a10 	vmsr	fpscr, r0

40003802 <_no_load_vfp>:
40003802:	e8bd 8ff1 	ldmia.w	sp!, {r0, r4, r5, r6, r7, r8, r9, sl, fp, pc}

40003806 <_entry_stub>:
40003806:	e8bd 500f 	ldmia.w	sp!, {r0, r1, r2, r3, ip, lr}
4000380a:	e9bd c000 	rfeia	sp!

4000380e <_dispatch_irq>:
4000380e:	4911      	ldr	r1, [pc, #68]	; (40003854 <_idle_loop+0x1c>)
40003810:	ee10 0fb0 	mrc	15, 0, r0, cr0, cr0, {5}
40003814:	f000 00ff 	and.w	r0, r0, #255	; 0xff
40003818:	f851 1020 	ldr.w	r1, [r1, r0, lsl #2]
4000381c:	6808      	ldr	r0, [r1, #0]
4000381e:	6849      	ldr	r1, [r1, #4]
40003820:	4288      	cmp	r0, r1
40003822:	f000 8007 	beq.w	40003834 <_nodispatch_irq>
40003826:	2800      	cmp	r0, #0
40003828:	d0c4      	beq.n	400037b4 <_restore_context>
4000382a:	f8df e02c 	ldr.w	lr, [pc, #44]	; 40003858 <_idle_loop+0x20>
4000382e:	b500      	push	{lr}
40003830:	4686      	mov	lr, r0
40003832:	e7a5      	b.n	40003780 <_save_and_restore>

40003834 <_nodispatch_irq>:
40003834:	f7ff bfe7 	b.w	40003806 <_entry_stub>

40003838 <_idle_loop>:
40003838:	f3af 8113 	cps	#19
4000383c:	4807      	ldr	r0, [pc, #28]	; (4000385c <_idle_loop+0x24>)
4000383e:	ee10 1fb0 	mrc	15, 0, r1, cr0, cr0, {5}
40003842:	f001 01ff 	and.w	r1, r1, #255	; 0xff
40003846:	eba0 2091 	sub.w	r0, r0, r1, lsr #10
4000384a:	4685      	mov	sp, r0
4000384c:	f7fd f8fc 	bl	40000a48 <idle_task>
40003850:	e7fc      	b.n	4000384c <_idle_loop+0x14>
40003852:	0000      	.short	0x0000
40003854:	400052a4 	.word	0x400052a4
40003858:	40003807 	.word	0x40003807
4000385c:	40009800 	.word	0x40009800

40003860 <_undef_entry>:
40003860:	b500      	push	{lr}
40003862:	f04f 0e00 	mov.w	lr, #0
40003866:	e007      	b.n	40003878 <_fault_entry>

40003868 <_pref_entry>:
40003868:	b500      	push	{lr}
4000386a:	f04f 0e01 	mov.w	lr, #1
4000386e:	e003      	b.n	40003878 <_fault_entry>

40003870 <_dabort_entry>:
40003870:	b500      	push	{lr}
40003872:	f04f 0e02 	mov.w	lr, #2
40003876:	e7ff      	b.n	40003878 <_fault_entry>

40003878 <_fault_entry>:
40003878:	e92d 1fff 	stmdb	sp!, {r0, r1, r2, r3, r4, r5, r6, r7, r8, r9, sl, fp, ip}
4000387c:	f3ff 8000 	mrs	r0, SPSR
40003880:	f3e5 8120 	mrs	r1, SP_usr
40003884:	f3e3 8230 	mrs	r2, SP_svc
40003888:	f3e1 8330 	mrs	r3, SP_irq
4000388c:	b40f      	push	{r0, r1, r2, r3}
4000388e:	4670      	mov	r0, lr
40003890:	4669      	mov	r1, sp
40003892:	f7fd f90b 	bl	40000aac <fault_handler>

40003896 <_irq_entry>:
40003896:	f1ae 0e04 	sub.w	lr, lr, #4
4000389a:	e82d c013 	srsdb	sp!, #19
4000389e:	f3af 8113 	cps	#19
400038a2:	e92d 500f 	stmdb	sp!, {r0, r1, r2, r3, ip, lr}
400038a6:	f3f2 8130 	mrs	r1, SPSR_svc
400038aa:	b402      	push	{r1}
400038ac:	eef8 1a10 	vmrs	r1, fpexc
400038b0:	f04f 0000 	mov.w	r0, #0
400038b4:	eee8 0a10 	vmsr	fpexc, r0
400038b8:	b402      	push	{r1}
400038ba:	ee10 0fb0 	mrc	15, 0, r0, cr0, cr0, {5}
400038be:	f000 00ff 	and.w	r0, r0, #255	; 0xff
400038c2:	492e      	ldr	r1, [pc, #184]	; (4000397c <cpsr_set+0x6>)
400038c4:	eb01 0180 	add.w	r1, r1, r0, lsl #2
400038c8:	6808      	ldr	r0, [r1, #0]
400038ca:	f100 0001 	add.w	r0, r0, #1
400038ce:	6008      	str	r0, [r1, #0]
400038d0:	2801      	cmp	r0, #1
400038d2:	d10b      	bne.n	400038ec <_from_handler>

400038d4 <_from_task>:
400038d4:	46ee      	mov	lr, sp
400038d6:	ee10 1fb0 	mrc	15, 0, r1, cr0, cr0, {5}
400038da:	f001 01ff 	and.w	r1, r1, #255	; 0xff
400038de:	4828      	ldr	r0, [pc, #160]	; (40003980 <cpsr_set+0xa>)
400038e0:	eba0 4001 	sub.w	r0, r0, r1, lsl #16
400038e4:	f1a0 0004 	sub.w	r0, r0, #4
400038e8:	4685      	mov	sp, r0
400038ea:	e004      	b.n	400038f6 <_common_ope>

400038ec <_from_handler>:
400038ec:	46ee      	mov	lr, sp
400038ee:	f01e 0f07 	tst.w	lr, #7
400038f2:	bf18      	it	ne
400038f4:	b081      	subne	sp, #4

400038f6 <_common_ope>:
400038f6:	b500      	push	{lr}
400038f8:	f8de 101c 	ldr.w	r1, [lr, #28]
400038fc:	f8de 2020 	ldr.w	r2, [lr, #32]
40003900:	4670      	mov	r0, lr
40003902:	f7fe fa19 	bl	40001d38 <c_handler>
40003906:	f8dd d000 	ldr.w	sp, [sp]
4000390a:	bc01      	pop	{r0}
4000390c:	eee8 0a10 	vmsr	fpexc, r0
40003910:	bc01      	pop	{r0}
40003912:	f390 8230 	msr	SPSR_svc, r0
40003916:	ee10 0fb0 	mrc	15, 0, r0, cr0, cr0, {5}
4000391a:	f000 00ff 	and.w	r0, r0, #255	; 0xff
4000391e:	4917      	ldr	r1, [pc, #92]	; (4000397c <cpsr_set+0x6>)
40003920:	eb01 0180 	add.w	r1, r1, r0, lsl #2
40003924:	6808      	ldr	r0, [r1, #0]
40003926:	f1a0 0001 	sub.w	r0, r0, #1
4000392a:	6008      	str	r0, [r1, #0]
4000392c:	2800      	cmp	r0, #0
4000392e:	f47f af81 	bne.w	40003834 <_nodispatch_irq>
40003932:	f7ff bf6c 	b.w	4000380e <_dispatch_irq>

40003936 <_fiq_entry>:
40003936:	f7ff bffe 	b.w	40003936 <_fiq_entry>

4000393a <_svc_entry>:
4000393a:	b510      	push	{r4, lr}
4000393c:	f3ff 8400 	mrs	r4, SPSR
40003940:	f014 0f80 	tst.w	r4, #128	; 0x80
40003944:	d105      	bne.n	40003952 <_not_change_irq>
40003946:	f3ef 8400 	mrs	r4, CPSR
4000394a:	f024 0480 	bic.w	r4, r4, #128	; 0x80
4000394e:	f384 8900 	msr	CPSR_fc, r4

40003952 <_not_change_irq>:
40003952:	f83e 4c02 	ldrh.w	r4, [lr, #-2]
40003956:	f004 04ff 	and.w	r4, r4, #255	; 0xff
4000395a:	ea4f 0484 	mov.w	r4, r4, lsl #2
4000395e:	f8df e024 	ldr.w	lr, [pc, #36]	; 40003984 <cpsr_set+0xe>
40003962:	f85e 4004 	ldr.w	r4, [lr, r4]
40003966:	47a0      	blx	r4
40003968:	e8bd 4010 	ldmia.w	sp!, {r4, lr}
4000396c:	f3de 8f00 	subs	pc, lr, #0

40003970 <cpsr_get>:
40003970:	f3ef 8000 	mrs	r0, CPSR
40003974:	4770      	bx	lr

40003976 <cpsr_set>:
40003976:	f380 8f00 	msr	CPSR_fsxc, r0
4000397a:	4770      	bx	lr
4000397c:	400054ec 	.word	0x400054ec
40003980:	40029800 	.word	0x40029800
40003984:	400040c0 	.word	0x400040c0

40003988 <task_create>:
40003988:	b500      	push	{lr}
4000398a:	df01      	svc	1
4000398c:	f85d eb04 	ldr.w	lr, [sp], #4
40003990:	4770      	bx	lr

40003992 <task_active>:
40003992:	b500      	push	{lr}
40003994:	df02      	svc	2
40003996:	f85d eb04 	ldr.w	lr, [sp], #4
4000399a:	4770      	bx	lr

4000399c <task_sleep>:
4000399c:	b500      	push	{lr}
4000399e:	df03      	svc	3
400039a0:	f85d eb04 	ldr.w	lr, [sp], #4
400039a4:	4770      	bx	lr

400039a6 <task_wakeup>:
400039a6:	b500      	push	{lr}
400039a8:	df04      	svc	4
400039aa:	f85d eb04 	ldr.w	lr, [sp], #4
400039ae:	4770      	bx	lr

400039b0 <task_tsleep>:
400039b0:	b500      	push	{lr}
400039b2:	df05      	svc	5
400039b4:	f85d eb04 	ldr.w	lr, [sp], #4
400039b8:	4770      	bx	lr

400039ba <task_dormant>:
400039ba:	b500      	push	{lr}
400039bc:	df06      	svc	6
400039be:	f85d eb04 	ldr.w	lr, [sp], #4
400039c2:	4770      	bx	lr

400039c4 <task_get_tls>:
400039c4:	b500      	push	{lr}
400039c6:	df07      	svc	7
400039c8:	f85d eb04 	ldr.w	lr, [sp], #4
400039cc:	4770      	bx	lr

400039ce <flag_create>:
400039ce:	b500      	push	{lr}
400039d0:	df08      	svc	8
400039d2:	f85d eb04 	ldr.w	lr, [sp], #4
400039d6:	4770      	bx	lr

400039d8 <flag_set>:
400039d8:	b500      	push	{lr}
400039da:	df09      	svc	9
400039dc:	f85d eb04 	ldr.w	lr, [sp], #4
400039e0:	4770      	bx	lr

400039e2 <flag_wait>:
400039e2:	b500      	push	{lr}
400039e4:	df0a      	svc	10
400039e6:	f85d eb04 	ldr.w	lr, [sp], #4
400039ea:	4770      	bx	lr

400039ec <flag_twait_stub>:
400039ec:	b500      	push	{lr}
400039ee:	df0b      	svc	11
400039f0:	f85d eb04 	ldr.w	lr, [sp], #4
400039f4:	4770      	bx	lr

400039f6 <flag_clear>:
400039f6:	b500      	push	{lr}
400039f8:	df0c      	svc	12
400039fa:	f85d eb04 	ldr.w	lr, [sp], #4
400039fe:	4770      	bx	lr

40003a00 <mutex_create>:
40003a00:	b500      	push	{lr}
40003a02:	df0d      	svc	13
40003a04:	f85d eb04 	ldr.w	lr, [sp], #4
40003a08:	4770      	bx	lr

40003a0a <mutex_unlock>:
40003a0a:	b500      	push	{lr}
40003a0c:	df0e      	svc	14
40003a0e:	f85d eb04 	ldr.w	lr, [sp], #4
40003a12:	4770      	bx	lr

40003a14 <mutex_lock>:
40003a14:	b500      	push	{lr}
40003a16:	df0f      	svc	15
40003a18:	f85d eb04 	ldr.w	lr, [sp], #4
40003a1c:	4770      	bx	lr

40003a1e <mutex_tlock>:
40003a1e:	b500      	push	{lr}
40003a20:	df10      	svc	16
40003a22:	f85d eb04 	ldr.w	lr, [sp], #4
40003a26:	4770      	bx	lr

40003a28 <sem_create>:
40003a28:	b500      	push	{lr}
40003a2a:	df11      	svc	17
40003a2c:	f85d eb04 	ldr.w	lr, [sp], #4
40003a30:	4770      	bx	lr

40003a32 <sem_request>:
40003a32:	b500      	push	{lr}
40003a34:	df12      	svc	18
40003a36:	f85d eb04 	ldr.w	lr, [sp], #4
40003a3a:	4770      	bx	lr

40003a3c <sem_trequest>:
40003a3c:	b500      	push	{lr}
40003a3e:	df13      	svc	19
40003a40:	f85d eb04 	ldr.w	lr, [sp], #4
40003a44:	4770      	bx	lr

40003a46 <sem_release>:
40003a46:	b500      	push	{lr}
40003a48:	df14      	svc	20
40003a4a:	f85d eb04 	ldr.w	lr, [sp], #4
40003a4e:	4770      	bx	lr

40003a50 <msgq_create>:
40003a50:	b500      	push	{lr}
40003a52:	df15      	svc	21
40003a54:	f85d eb04 	ldr.w	lr, [sp], #4
40003a58:	4770      	bx	lr

40003a5a <msgq_send>:
40003a5a:	b500      	push	{lr}
40003a5c:	df16      	svc	22
40003a5e:	f85d eb04 	ldr.w	lr, [sp], #4
40003a62:	4770      	bx	lr

40003a64 <msgq_tsend>:
40003a64:	b500      	push	{lr}
40003a66:	df17      	svc	23
40003a68:	f85d eb04 	ldr.w	lr, [sp], #4
40003a6c:	4770      	bx	lr

40003a6e <msgq_recv>:
40003a6e:	b500      	push	{lr}
40003a70:	df18      	svc	24
40003a72:	f85d eb04 	ldr.w	lr, [sp], #4
40003a76:	4770      	bx	lr

40003a78 <msgq_trecv>:
40003a78:	b500      	push	{lr}
40003a7a:	df19      	svc	25
40003a7c:	f85d eb04 	ldr.w	lr, [sp], #4
40003a80:	4770      	bx	lr

40003a82 <fixmb_create>:
40003a82:	b500      	push	{lr}
40003a84:	df1a      	svc	26
40003a86:	f85d eb04 	ldr.w	lr, [sp], #4
40003a8a:	4770      	bx	lr

40003a8c <fixmb_request>:
40003a8c:	b500      	push	{lr}
40003a8e:	df1b      	svc	27
40003a90:	f85d eb04 	ldr.w	lr, [sp], #4
40003a94:	4770      	bx	lr

40003a96 <fixmb_trequest>:
40003a96:	b500      	push	{lr}
40003a98:	df1c      	svc	28
40003a9a:	f85d eb04 	ldr.w	lr, [sp], #4
40003a9e:	4770      	bx	lr

40003aa0 <fixmb_release>:
40003aa0:	b500      	push	{lr}
40003aa2:	df1d      	svc	29
40003aa4:	f85d eb04 	ldr.w	lr, [sp], #4
40003aa8:	4770      	bx	lr

40003aaa <sys_malloc>:
40003aaa:	b500      	push	{lr}
40003aac:	df1e      	svc	30
40003aae:	f85d eb04 	ldr.w	lr, [sp], #4
40003ab2:	4770      	bx	lr

40003ab4 <sys_free>:
40003ab4:	b500      	push	{lr}
40003ab6:	df1f      	svc	31
40003ab8:	f85d eb04 	ldr.w	lr, [sp], #4
40003abc:	4770      	bx	lr

40003abe <sys_malloc_align>:
40003abe:	b500      	push	{lr}
40003ac0:	df20      	svc	32
40003ac2:	f85d eb04 	ldr.w	lr, [sp], #4
40003ac6:	4770      	bx	lr

40003ac8 <irq_add_handler>:
40003ac8:	b500      	push	{lr}
40003aca:	df21      	svc	33	; 0x21
40003acc:	f85d eb04 	ldr.w	lr, [sp], #4
40003ad0:	4770      	bx	lr

40003ad2 <irq_set_enable>:
40003ad2:	b500      	push	{lr}
40003ad4:	df22      	svc	34	; 0x22
40003ad6:	f85d eb04 	ldr.w	lr, [sp], #4
40003ada:	4770      	bx	lr

40003adc <irq_get_enable>:
40003adc:	b500      	push	{lr}
40003ade:	df23      	svc	35	; 0x23
40003ae0:	f85d eb04 	ldr.w	lr, [sp], #4
40003ae4:	4770      	bx	lr

40003ae6 <timer_create>:
40003ae6:	b500      	push	{lr}
40003ae8:	df24      	svc	36	; 0x24
40003aea:	f85d eb04 	ldr.w	lr, [sp], #4
40003aee:	4770      	bx	lr

40003af0 <timer_set>:
40003af0:	b500      	push	{lr}
40003af2:	df25      	svc	37	; 0x25
40003af4:	f85d eb04 	ldr.w	lr, [sp], #4
40003af8:	4770      	bx	lr

40003afa <timer_enable>:
40003afa:	b500      	push	{lr}
40003afc:	df26      	svc	38	; 0x26
40003afe:	f85d eb04 	ldr.w	lr, [sp], #4
40003b02:	4770      	bx	lr

40003b04 <spin_init>:
40003b04:	f04f 0100 	mov.w	r1, #0
40003b08:	6001      	str	r1, [r0, #0]
40003b0a:	f3bf 8f4f 	dsb	sy
40003b0e:	4770      	bx	lr

40003b10 <spin_lock>:
40003b10:	f04f 0101 	mov.w	r1, #1

40003b14 <Loop>:
40003b14:	e850 2f00 	ldrex	r2, [r0]
40003b18:	2a00      	cmp	r2, #0
40003b1a:	bf13      	iteet	ne
40003b1c:	bf20      	wfene
40003b1e:	e840 1200 	strexeq	r2, r1, [r0]
40003b22:	2a00      	cmpeq	r2, #0
40003b24:	e7f6      	bne.n	40003b14 <Loop>
40003b26:	f3bf 8f5f 	dmb	sy
40003b2a:	4770      	bx	lr

40003b2c <spin_unlock>:
40003b2c:	f04f 0100 	mov.w	r1, #0
40003b30:	f3bf 8f5f 	dmb	sy
40003b34:	6001      	str	r1, [r0, #0]
40003b36:	f3bf 8f4f 	dsb	sy
40003b3a:	bf40      	sev
40003b3c:	4770      	bx	lr

40003b3e <spin_trylock>:
40003b3e:	f04f 0101 	mov.w	r1, #1
40003b42:	e850 2f00 	ldrex	r2, [r0]
40003b46:	2a00      	cmp	r2, #0
40003b48:	bf03      	ittte	eq
40003b4a:	e840 1200 	strexeq	r2, r1, [r0]
40003b4e:	2a00      	cmpeq	r2, #0
40003b50:	2001      	moveq	r0, #1
40003b52:	2000      	movne	r0, #0
40003b54:	f3bf 8f5f 	dmb	sy
40003b58:	4770      	bx	lr
40003b5a:	0000      	movs	r0, r0
40003b5c:	743a6425 	.word	0x743a6425
40003b60:	316b7361 	.word	0x316b7361
40003b64:	636f6c3a 	.word	0x636f6c3a
40003b68:	00000a6b 	.word	0x00000a6b
40003b6c:	743a6425 	.word	0x743a6425
40003b70:	316b7361 	.word	0x316b7361
40003b74:	6c6e753a 	.word	0x6c6e753a
40003b78:	0a6b636f 	.word	0x0a6b636f
40003b7c:	00000000 	.word	0x00000000
40003b80:	743a6425 	.word	0x743a6425
40003b84:	326b7361 	.word	0x326b7361
40003b88:	636f6c3a 	.word	0x636f6c3a
40003b8c:	00000a6b 	.word	0x00000a6b
40003b90:	743a6425 	.word	0x743a6425
40003b94:	326b7361 	.word	0x326b7361
40003b98:	6c6e753a 	.word	0x6c6e753a
40003b9c:	0a6b636f 	.word	0x0a6b636f
40003ba0:	00000000 	.word	0x00000000
40003ba4:	743a6425 	.word	0x743a6425
40003ba8:	336b7361 	.word	0x336b7361
40003bac:	636f6c3a 	.word	0x636f6c3a
40003bb0:	00000a6b 	.word	0x00000a6b
40003bb4:	743a6425 	.word	0x743a6425
40003bb8:	336b7361 	.word	0x336b7361
40003bbc:	6c6e753a 	.word	0x6c6e753a
40003bc0:	0a6b636f 	.word	0x0a6b636f
40003bc4:	00000000 	.word	0x00000000
40003bc8:	743a6425 	.word	0x743a6425
40003bcc:	346b7361 	.word	0x346b7361
40003bd0:	636f6c3a 	.word	0x636f6c3a
40003bd4:	00000a6b 	.word	0x00000a6b
40003bd8:	743a6425 	.word	0x743a6425
40003bdc:	346b7361 	.word	0x346b7361
40003be0:	6c6e753a 	.word	0x6c6e753a
40003be4:	0a6b636f 	.word	0x0a6b636f
40003be8:	00000000 	.word	0x00000000
40003bec:	4b534154 	.word	0x4b534154
40003bf0:	00003130 	.word	0x00003130
40003bf4:	4b534154 	.word	0x4b534154
40003bf8:	00003230 	.word	0x00003230
40003bfc:	4b534154 	.word	0x4b534154
40003c00:	00003330 	.word	0x00003330
40003c04:	4b534154 	.word	0x4b534154
40003c08:	00003430 	.word	0x00003430
40003c0c:	4c544353 	.word	0x4c544353
40003c10:	203d2052 	.word	0x203d2052
40003c14:	58383025 	.word	0x58383025
40003c18:	0000000a 	.word	0x0000000a
40003c1c:	4c544341 	.word	0x4c544341
40003c20:	203d2052 	.word	0x203d2052
40003c24:	58383025 	.word	0x58383025
40003c28:	0000000a 	.word	0x0000000a
40003c2c:	20524353 	.word	0x20524353
40003c30:	3025203d 	.word	0x3025203d
40003c34:	000a5838 	.word	0x000a5838
40003c38:	505f4449 	.word	0x505f4449
40003c3c:	20305246 	.word	0x20305246
40003c40:	3025203d 	.word	0x3025203d
40003c44:	000a5838 	.word	0x000a5838
40003c48:	505f4449 	.word	0x505f4449
40003c4c:	20315246 	.word	0x20315246
40003c50:	3025203d 	.word	0x3025203d
40003c54:	000a5838 	.word	0x000a5838
40003c58:	44494c43 	.word	0x44494c43
40003c5c:	25203d20 	.word	0x25203d20
40003c60:	0a583830 	.word	0x0a583830
40003c64:	00000000 	.word	0x00000000
40003c68:	64253a4c 	.word	0x64253a4c
40003c6c:	20642520 	.word	0x20642520
40003c70:	25206425 	.word	0x25206425
40003c74:	64252064 	.word	0x64252064
40003c78:	544f5420 	.word	0x544f5420
40003c7c:	253d4c41 	.word	0x253d4c41
40003c80:	74796264 	.word	0x74796264
40003c84:	000a7365 	.word	0x000a7365
40003c88:	69642030 	.word	0x69642030
40003c8c:	65646976 	.word	0x65646976
40003c90:	00000a64 	.word	0x00000a64

40003c94 <attr_conv_tbl>:
40003c94:	00011c0e 0000047e 00011c1e 0000047f     ....~...........
40003ca4:	00010c16 00000437 6e726157 676e696e     ....7...Warnning
40003cb4:	756d203a 7069746c 6420656c 6e696665     : multiple defin
40003cc4:	64612065 253d7264 20583830 6c627470     e addr=%08X ptbl
40003cd4:	3830253d 6e692058 3d786564 000a6425     =%08X index=%d..
40003ce4:	4c544353 203d2052 58383025 0000000a     SCTLR = %08X....
40003cf4:	3a757063 000a6425 646e750a 000a6665     cpu:%d...undef..
40003d04:	6572700a 63746566 62612068 0a74726f     .prefetch abort.
40003d14:	00000000 7461640a 62612061 0a74726f     .....data abort.
40003d24:	00000000 6b6e750a 6e776f6e 75616620     .....unknown fau
40003d34:	000a746c 3a305220 58383025 31522020     lt.. R0:%08X  R1
40003d44:	3830253a 52202058 30253a32 20205838     :%08X  R2:%08X  
40003d54:	253a3352 0a583830 00000000 3a345220     R3:%08X..... R4:
40003d64:	58383025 35522020 3830253a 52202058     %08X  R5:%08X  R
40003d74:	30253a36 20205838 253a3752 0a583830     6:%08X  R7:%08X.
40003d84:	00000000 3a385220 58383025 39522020     .... R8:%08X  R9
40003d94:	3830253a 31522058 30253a30 52205838     :%08X R10:%08X R
40003da4:	253a3131 0a583830 00000000 3a323152     11:%08X.....R12:
40003db4:	58383025 524c2020 3830253a 50432058     %08X  LR:%08X CP
40003dc4:	253a5253 0a583830 00000000 755f5053     SR:%08X.....SP_u
40003dd4:	253a7273 20583830 735f5053 253a6376     sr:%08X SP_svc:%
40003de4:	20583830 695f5053 253a7172 0a583830     08X SP_irq:%08X.
40003df4:	00000000 52534644 3830253a 46442058     ....DFSR:%08X DF
40003e04:	253a5241 20583830 52534649 3830253a     AR:%08X IFSR:%08
40003e14:	46492058 253a5241 0a583830 00000000     X IFAR:%08X.....
40003e24:	746f6f42 20676e69 534f5742 72655620     Booting BWOS Ver
40003e34:	302e3020 000a6231 54494e49 5341545f      0.01b..INIT_TAS
40003e44:	0000004b 61685f63 656c646e 50533a72     K...c_handler:SP
40003e54:	3830253d 43502058 3830253d 52532058     =%08X PC=%08X SR
40003e64:	3830253d 43412058 30253d4b 000a5838     =%08X ACK=%08X..
40003e74:	20515249 3d4d554e 000a6425 4e49414d     IRQ NUM=%d..MAIN
40003e84:	5341545f 0000004b                       _TASK...
